ccopy_reg
_reconstructor
p0
(cdeap.tools.support
Logbook
p1
cdill.dill
_load_type
p2
(S'ListType'
p3
tp4
Rp5
(lp6
(dp7
S'indivId'
p8
S'000-001'
p9
sS'genome'
p10
(lp11
F0.45633846411220114
aF0.31550441670394125
aF0.46363608616776597
aF0.3086209926362171
aF0.013001842474000158
aF0.479695830013139
aF0.30240862309421357
aF0.9165722604554994
aF0.3919531148867911
aF0.3953272247666064
aF0.028132711860598292
aF0.19049827858512436
aI1
aI1
aI1
aF0.9373284201625616
aF0.8533281554592619
aF0.3064599033759874
aF0.12908296866898905
aF0.8413429259128087
aF0.3096371515372175
aF0.6618273189040453
aF0.6294721895068692
aF0.6311620990955914
aF0.06022130351059474
aF0.6944992188457483
aF0.5307969460415565
aF0.6989416016954564
aF0.9038258443890377
aF0.4099931916830303
aF0.14681802646464226
aF0.25002287756824615
aF0.4914022393561672
aF0.48036429493834343
aF0.45169332285883645
aF0.842574097858232
aF0.04598407925003645
aF0.7535516976972665
aF0.8468250631248619
aF0.5286025069455741
aI0
aF0.8679229202047375
aF0.4063290126830873
aF0.8106516227766005
aF0.10307882551748548
aF0.7492834355935499
aF0.22904989356350403
aF0.44244994135760873
aF0.3137342131591817
aF0.9420434568819893
aF0.8108710305376252
aF0.8446610939161083
aF0.1443128949190028
aF0.5522889707569374
aF0.7600279012630509
aF0.6822277039300773
aF0.6833004887260508
aF0.31444861136096725
aF0.2723612722164602
aF0.9558687908677073
asS'fitness'
p12
(F4.242640495300293
tp13
sa(dp14
S'mutationProb'
p15
F0.2
sS'tournSize'
p16
I3
sS'timeElapsed'
p17
S'0:00:00.032383'
p18
sS'indivProb'
p19
F0.05
sS'genomeSize'
p20
I60
sS'finalPop'
p21
I1
sS'length'
p22
I10
sS'cloneName'
p23
S'018-006'
p24
sS'cxProb'
p25
F0.5
sS'exp'
p26
S'initializeBraiten2_2_Full_GA'
p27
sS'type'
p28
S'clones'
p29
sS'date'
p30
S'Thu, 07 May 2015 17:52:54'
p31
sS'finalIndivs'
p32
(lp33
(g9
(F4.242640495300293
tp34
(lp35
F0.45633846411220114
aF0.31550441670394125
aF0.46363608616776597
aF0.3086209926362171
aF0.013001842474000158
aF0.479695830013139
aF0.30240862309421357
aF0.9165722604554994
aF0.3919531148867911
aF0.3953272247666064
aF0.028132711860598292
aF0.19049827858512436
aI1
aI1
aI1
aF0.9373284201625616
aF0.8533281554592619
aF0.3064599033759874
aF0.12908296866898905
aF0.8413429259128087
aF0.3096371515372175
aF0.6618273189040453
aF0.6294721895068692
aF0.6311620990955914
aF0.06022130351059474
aF0.6944992188457483
aF0.5307969460415565
aF0.6989416016954564
aF0.9038258443890377
aF0.4099931916830303
aF0.14681802646464226
aF0.25002287756824615
aF0.4914022393561672
aF0.48036429493834343
aF0.45169332285883645
aF0.842574097858232
aF0.04598407925003645
aF0.7535516976972665
aF0.8468250631248619
aF0.5286025069455741
aI0
aF0.8679229202047375
aF0.4063290126830873
aF0.8106516227766005
aF0.10307882551748548
aF0.7492834355935499
aF0.22904989356350403
aF0.44244994135760873
aF0.3137342131591817
aF0.9420434568819893
aF0.8108710305376252
aF0.8446610939161083
aF0.1443128949190028
aF0.5522889707569374
aF0.7600279012630509
aF0.6822277039300773
aF0.6833004887260508
aF0.31444861136096725
aF0.2723612722164602
aF0.9558687908677073
atp36
asS'initPop'
p37
I1
sS'generations'
p38
I0
satp39
Rp40
(dp41
S'log_header'
p42
I01
sS'header'
p43
NsS'columns_len'
p44
NsS'buffindex'
p45
I0
sS'chapters'
p46
ccollections
defaultdict
p47
(g1
tp48
Rp49
sb.