ccopy_reg
_reconstructor
p0
(cdeap.tools.support
Logbook
p1
cdill.dill
_load_type
p2
(S'ListType'
p3
tp4
Rp5
(lp6
(dp7
S'indivId'
p8
S'000-001'
p9
sS'genome'
p10
(lp11
F0.3790985254337701
aF0.567098167179614
aF0.5955925126571219
aF0.4498588988554526
aF0.45701982539471864
aF0.3116509978753955
aF0.3133373611975704
aF0.29485946100158045
aF0.5307724612356264
aF0.3962220215994189
aF0.7187503721849594
aF0.5480919969498905
aF0.582075082707141
aF0.16765093779104812
aF0.029277197597395443
aF0.20874191791401042
aF0.022575436577678576
aF0.6346744421866868
aF0.2244417391997393
aF0.398309870301092
aF0.6195007984120342
aF0.0019484974344642358
aF0.03566996876236428
aF0.37678955251943136
aF0.21644443407337655
aF0.4048454828536602
aF0.8659941335573602
aF0.25572342020850636
aF0.6014348792249553
aF0.22690134085102698
aF0.20608794746311854
aF0.17591993612773082
aF0.8885993262120673
aF0.6715822963723029
aF0.37582036742565106
aF0.01798798449939376
aF0.3525379118118491
aF0.30602276252477023
aF0.42334245064614184
aF0.39410618841423173
aF0.569013590836327
aF0.5751778692306263
aF0.6232828041751413
aF0.24976651629104318
aF0.1309454633729532
aF0.24507316100625598
aF0.989330052745969
aF0.9569592935418557
aF0.7115764135230284
aF0.7676115740419204
aF0.08694693688587751
aF0.9028118459872476
aF0.5375014817017365
aF0.09894442813170345
aF0.8125945489088434
aF0.5300534116638986
aF0.6950708555045416
aF0.3318716477651059
aF0.965555162886077
aF0.2501179233661036
asS'fitness'
p12
(F4.597808361053467
tp13
sa(dp14
g8
S'000-002'
p15
sg10
(lp16
F0.24138247743851493
aF0.09696807065302482
aF0.6121772791607862
aF0.5178368630163431
aF0.46532550577296483
aF0.8442382076652287
aF0.43989497483172524
aF0.8437708587447599
aF0.06485964093513452
aF0.8439821316397432
aF0.32875701614259145
aF0.4320164574705886
aF0.2627444730005214
aF0.650690486330408
aF0.07826413945779476
aF0.10754077019629094
aF0.2855637965052924
aF0.045601941621106645
aF0.9608175421588783
aF0.01616414734422067
aF0.6035017741864835
aF0.6733061733547587
aF0.9417110326758313
aF0.7100432587709465
aF0.3255601902775359
aF0.10155763563414877
aF0.47239461396171567
aF0.3070009714400088
aF0.5572196197668691
aF0.330365111340602
aF0.32445528378267485
aF0.9794668643678344
aF0.7969030205434561
aF0.9886250822357301
aF0.07940994130836332
aF0.4588355578091533
aF0.8668238568425944
aF0.47915207492742673
aF0.807262960209622
aF0.023363770515924642
aF0.6023989538220866
aF0.07733242788163808
aF0.5442000525379087
aF0.049196525096247834
aF0.7399430301840194
aF0.5030198434529128
aF0.047073860316548255
aF0.022632746739208343
aF0.8264925631446832
aF0.3756554606230915
aF0.0071538258880377015
aF0.050402740750721375
aF0.8227646207266283
aF0.9685839284015374
aF0.5262875813469904
aF0.16117594469210828
aF0.47582667563157854
aF0.4876641861203469
aF0.15133760508293048
aF0.22485718445003233
asg12
(F10.688922882080078
tp17
sa(dp18
g8
S'000-003'
p19
sg10
(lp20
F0.3037778899837317
aF0.2750310998003874
aF0.3965254897106665
aF0.7083110386181418
aF0.8321721417468573
aF0.6357336172086434
aF0.650965774553266
aF0.015229400104253221
aF0.3440471670401263
aF0.7272867476157536
aF0.6289003864128716
aF0.37786854513305934
aF0.06260925718039012
aF0.3375684730702272
aF0.16002545559720538
aF0.7226689495322585
aF0.17309313001185067
aF0.8422481647276834
aF0.7367702902739851
aF0.3326829434673577
aF0.1306820766709471
aF0.8653825058943665
aF0.8452925824887814
aF0.3749966095986257
aF0.5323085601027815
aF0.45751913539855926
aF0.10394850922899668
aF0.8717671133945293
aF0.6062894705162657
aF0.07387998101526994
aF0.642468152405068
aF0.723919371005717
aF0.36918650710963297
aF0.20203849631217208
aF0.009091032399944687
aF0.40200886914884015
aF0.12625945129931726
aF0.3635457183657944
aF0.7226961155679107
aF0.3255529680721686
aF0.5149358531982371
aF0.2760704204091047
aF0.25045343078556526
aF0.723312452272034
aF0.25392013145731596
aF0.3734759612527109
aF0.9076344047373237
aF0.2468034257921553
aF0.5126085489868577
aF0.7717663867108217
aF0.11701655448833437
aF0.6317882208027297
aF0.23151808613771352
aF0.24635874239802424
aF0.9323630404524863
aF0.38742538261055637
aF0.0862201318148802
aF0.003372697683293513
aF0.4037871821464716
aF0.9960554712854306
asg12
(F4.260958194732666
tp21
sa(dp22
g8
S'000-004'
p23
sg10
(lp24
F0.5977474715985369
aF0.7565852748646938
aF0.5731808163485852
aF0.12185690581350661
aF0.45052017630995866
aF0.3897067321909016
aF0.2205500638766389
aF0.9055837001727739
aF0.2807532119404682
aF0.14020529118107572
aF0.4929785051928999
aF0.4541022360616045
aF0.7219998572759238
aF0.681497324038476
aF0.4421304749502303
aF0.9798313610103699
aF0.0482719288247786
aF0.7662509070775629
aF0.987291198714648
aF0.25424336418090465
aF0.7142632915699777
aF0.12008320823158536
aF0.46155045224195335
aF0.5066705895061907
aF0.6188996973551385
aF0.37252789166562517
aF0.35804052106251516
aF0.45746173944738955
aF0.6236710136991517
aF0.7944189074761677
aF0.008704704271813468
aF0.14584120128227573
aF0.027495116200926595
aF0.6395353874183893
aF0.9900558986392969
aF0.6854707734883665
aF0.4463969824564541
aF0.17956778002175433
aF0.4426140401678391
aF0.023526007924642656
aF0.4299469510443795
aF0.05867173589188823
aF0.8624067312515243
aF0.24377059399488066
aF0.7690464622349673
aF0.7678754262816735
aF0.8483965734069914
aF0.9199154106868515
aF0.8232778535107556
aF0.09272385392844229
aF0.43216845195145737
aF0.0577165377033142
aF0.14245120360470886
aF0.438095880986032
aF0.14620447289775285
aF0.42672084133699806
aF0.7874908774611347
aF0.07513539561091631
aF0.4939473521869532
aF0.40255244010725433
asg12
(F1.9476503133773804
tp25
sa(dp26
g8
S'000-005'
p27
sg10
(lp28
F0.5103007282559362
aF0.2772400054821649
aF0.4349806972932321
aF0.42473602255428267
aF0.9610285994782564
aF0.8970355542250332
aF0.7271183670229919
aF0.23374979314153765
aF0.8744613441277278
aF0.558309278071308
aF0.6983082362218017
aF0.8776781624681985
aF0.233270005273011
aF0.7331233481010968
aF0.5249377113366492
aF0.7712895306386303
aF0.7186736516627631
aF0.251027298131858
aF0.6944635902221993
aF0.7718369295159025
aF0.27307650511996695
aF0.179884945209142
aF0.46893347928741624
aF0.27398920654364434
aF0.613787116547938
aF0.43162430733851564
aF0.002402573682349085
aF0.8396294056303821
aF0.7251189982682684
aF0.6678128371031636
aF0.1080822154550467
aF0.7730500868262571
aF0.17476919720769335
aF0.827201901182771
aF0.8891893630875474
aF0.02544462325195118
aF0.3874818140942703
aF0.08989381043127409
aF0.7937967015495366
aF0.9230304279750117
aF0.3795463639865222
aF0.75383291824816
aF0.03940691738994695
aF0.8596104495654882
aF0.3187615702588913
aF0.6575000911349201
aF0.7194649669192729
aF0.5768766730283932
aF0.47229582205383513
aF0.7352932890603828
aF0.5485662239017328
aF0.518724046135579
aF0.13857097808045682
aF0.48727333693723585
aF0.42642857175992166
aF0.25762836241596687
aF0.7124489238259815
aF0.47505989969624673
aF0.16302302744225294
aF0.5874708754446183
asg12
(F9.415352821350098
tp29
sa(dp30
g8
S'000-006'
p31
sg10
(lp32
F0.32115846458700004
aF0.30715126971886164
aF0.06740513335982123
aF0.6208848129831568
aF0.8178271248847158
aF0.015216662699125139
aF0.5667215678997511
aF0.3771195581796972
aF0.3949396636277842
aF0.9645414548080862
aF0.6596277629645985
aF0.8029051236653953
aF0.02609492029391236
aF0.6832151248029579
aF0.5694530486300334
aF0.5565607801415638
aF0.5847078794152412
aF0.3801519888714211
aF0.8527053262102705
aF0.11527805929707513
aF0.7258646329806784
aF0.7040005620279094
aF0.14570269088858478
aF0.23790192656772147
aF0.964334059622282
aF0.8297177748548507
aF0.473853148303761
aF0.06946701274216094
aF0.5420998814706973
aF0.8141958007067829
aF0.11061151324402119
aF0.07118578685761423
aF0.7693046187790891
aF0.9745694047693448
aF0.07292707847339064
aF0.711945613262201
aF0.7881851041584018
aF0.8373331665930538
aF0.14980307697242046
aF0.7370682577263348
aF0.19429861981568397
aF0.030745145245507866
aF0.8992612943267099
aF0.03521225070360712
aF0.2742318449140446
aF0.2508634417030451
aF0.6361446998639699
aF0.22609084964989734
aF0.26622015372191843
aF0.6559894740448464
aF0.3495410944197409
aF0.23410473859754188
aF0.52515396307997
aF0.6774676676311349
aF0.37629835196741523
aF0.6308447759475739
aF0.041018316988591264
aF0.24169405772996932
aF0.5615540867795299
aF0.5207924495883094
asg12
(F4.251180648803711
tp33
sa(dp34
g8
S'000-007'
p35
sg10
(lp36
F0.2527700110829505
aF0.6584714274185296
aF0.2780663805435738
aF0.9240048755208677
aF0.7039464028668306
aF0.18142322185887316
aF0.6668940491822838
aF0.921163201394948
aF0.7806172804678976
aF0.006422824816963213
aF0.43541998126471404
aF0.19017037651406743
aF0.8928909212431031
aF0.3632188618460992
aF0.4371558836677616
aF0.4830240786669382
aF0.5973556310463264
aF0.4884002905455487
aF0.6444167018221286
aF0.271369529952617
aF0.5887438251108476
aF0.6738243624776952
aF0.5422214477929082
aF0.4054545659325832
aF0.0952658112601309
aF0.13493033269839017
aF0.41507991408234357
aF0.5788970882359721
aF0.8628180747970982
aF0.24306228056969714
aF0.45751698358241866
aF0.8702461793675089
aF0.5640672429517019
aF0.7023294021234315
aF0.4363780370483008
aF0.12318955538021303
aF0.5204682924915367
aF0.31250167745850643
aF0.3051808777281808
aF0.9867749821000896
aF0.9414616363469814
aF0.2795790208671689
aF0.9139118691033995
aF0.4653098681394957
aF0.1337305143460984
aF0.9220836896248115
aF0.10651941880782867
aF0.891199977234875
aF0.3430095787876175
aF0.14544359696441833
aF0.3181290706968295
aF0.18020892314908032
aF0.46224767192464455
aF0.17812677215754047
aF0.13216976304179684
aF0.22452803230686558
aF0.6343750001112188
aF0.05946127689921421
aF0.4059594412686047
aF0.4299141828434885
asg12
(F4.2636494636535645
tp37
sa(dp38
g8
S'000-008'
p39
sg10
(lp40
F0.3058353016778773
aF0.542034741602604
aF0.5585280245108698
aF0.9461963015241597
aF0.10849387247109332
aF0.7761419144435203
aF0.5388805510395732
aF0.6856393312473892
aF0.21327917883705472
aF0.8330350665405052
aF0.7712203576296596
aF0.8698650507842562
aF0.16397083380646915
aF0.6838209531059433
aF0.708527737092753
aF0.6149106630395439
aF0.5791131301249891
aF0.02784343414740098
aF0.7403875364841164
aF0.6577097904853916
aF0.8077524093637231
aF0.12661653167533793
aF0.6164366863235934
aF0.7545814382543705
aF0.8332318712350878
aF0.7056839565026564
aF0.7596610052965681
aF0.5565046724110673
aF0.16651269236285537
aF0.07451944379003805
aF0.4411160772728149
aF0.29820500050787213
aF0.2728892054823875
aF0.6002655904530635
aF0.2889449314067398
aF0.7367605203231965
aF0.03474741549738569
aF0.9605860683862785
aF0.8070660329036021
aF0.4678629377525527
aF0.5762432826899029
aF0.054318868434385825
aF0.5003414287512978
aF0.9241464269722173
aF0.20651519302582433
aF0.8971580615704432
aF0.8501714620437637
aF0.8234862435352026
aF0.00917126854433814
aF0.6002105525780808
aF0.5039730533999041
aF0.35709058781975955
aF0.42178257589251755
aF0.7753779587908198
aF0.2433311226297683
aF0.44419375301913266
aF0.6946018516064049
aF0.47525425556232503
aF0.7356184890147639
aF0.17610122164822628
asg12
(F4.507707118988037
tp41
sa(dp42
g8
S'000-009'
p43
sg10
(lp44
F0.06352470929602771
aF0.5743610234003814
aF0.7624733286943516
aF0.32821901174977275
aF0.5130311100287621
aF0.174337059403603
aF0.8314886686660383
aF0.6277015948436445
aF0.9215750853913907
aF0.6886101409822257
aF0.07529109672026535
aF0.643508330100121
aF0.08253476430871443
aF0.0461249449408625
aF0.746605317353774
aF0.30383706910087604
aF0.5591212981294323
aF0.39111412104049836
aF0.9987652354995055
aF0.4675215543839064
aF0.9740085481079509
aF0.010322122916568977
aF0.034184559162591444
aF0.6059354367015514
aF0.35464972725526056
aF0.8367039303112589
aF0.21841680829197263
aF0.21248833432389946
aF0.09373496696850214
aF0.4981805636137725
aF0.7394156698043944
aF0.4826451551836459
aF0.03668923354329323
aF0.048557238611517284
aF0.682255845858135
aF0.6507116744503472
aF0.23578277942693482
aF0.305825552327161
aF0.6932266297400123
aF0.3878495705811579
aF0.5455879758095002
aF0.991766264956517
aF0.4478655379203016
aF0.6529237311804125
aF0.35872850740030526
aF0.30750523413041164
aF0.6055594143983801
aF0.4051350947405187
aF0.4639514196462262
aF0.8701724547941367
aF0.377057125452374
aF0.9301100427312842
aF0.8895745940233082
aF0.9204281600635704
aF0.991861613591039
aF0.5365950107336782
aF0.25134241856339
aF0.4435264254314033
aF0.05674659478035393
aF0.024530404727129418
asg12
(F12.680557250976562
tp45
sa(dp46
g8
S'000-010'
p47
sg10
(lp48
F0.1497928410913265
aF0.5038236666694329
aF0.2557374990461998
aF0.058926941813779554
aF0.35465712451541476
aF0.22005022722287915
aF0.8679113017136846
aF0.09741699117162972
aF0.7555319338553963
aF0.6515681125906062
aF0.06480261396537579
aF0.490053835785613
aF0.7279319106839764
aF0.7874093360507507
aF0.8678195862165274
aF0.11085694309046334
aF0.4131368065565938
aF0.7172910083328335
aF0.34059980493500286
aF0.49288506724837666
aF0.7646328073371264
aF0.4832101626304436
aF0.8694138093553975
aF0.9778560948813415
aF0.29227867709256417
aF0.26186192475144676
aF0.3624683758704986
aF0.7395444137303858
aF0.40173143880344486
aF0.1563154225489961
aF0.7358718761929431
aF0.2422452124743848
aF0.8534170363326442
aF0.9603126579344519
aF0.9779542877672085
aF0.756199221825367
aF0.7822602455239818
aF0.8216160416060991
aF0.7717101889201333
aF0.7329678936141101
aF0.15978228020642748
aF0.3551138988572555
aF0.3473239091832244
aF0.20508661258950445
aF0.40140416164484116
aF0.26674280179454024
aF0.3890616544460922
aF0.10016852670170806
aF0.3185648224296329
aF0.49892372994117307
aF0.8742531343631249
aF0.4092406541864225
aF0.903192430060378
aF0.8611901250050894
aF0.1463213148529524
aF0.4047196804186649
aF0.7008969664174919
aF0.03917170425667171
aF0.1113538810666882
aF0.5338412934137382
asg12
(F4.228349208831787
tp49
sa(dp50
g8
S'000-011'
p51
sg10
(lp52
F0.22800800083988015
aF0.04242502534900261
aF0.008034233991367379
aF0.5818225298511792
aF0.26442292622963903
aF0.5422902286208463
aF0.06489615138344329
aF0.8518604423703725
aF0.19406238805315557
aF0.8644093561515901
aF0.3173811278261488
aF0.2898630331004999
aF0.27976619538274416
aF0.5313440674284357
aF0.9504714022340348
aF0.23222540118580504
aF0.7521171140182856
aF0.894367913699984
aF0.00481534900011471
aF0.2442817614141638
aF0.6849005304683276
aF0.7281002991023747
aF0.547134150944333
aF0.6915057709094158
aF0.9173260444845022
aF0.45054201759961077
aF0.8923366740303927
aF0.11089476889031258
aF0.6798858866204599
aF0.7653402847269402
aF0.1439119456714012
aF0.5720388765963738
aF0.7765977952604675
aF0.45673467768485354
aF0.30256187280878055
aF0.2774849126215828
aF0.7250243209073831
aF0.06218437336138627
aF0.8650253692300843
aF0.6396146476010278
aF0.6518457533517548
aF0.8460025576248553
aF0.038175520621896
aF0.5861133974847633
aF0.6683852248308473
aF0.7353355420648255
aF0.13107086557714231
aF0.5487249148495791
aF0.6658816727821183
aF0.3445046582483968
aF0.012097930066906959
aF0.368849498033756
aF0.6914615850424908
aF0.15733976410312
aF0.8842902032161152
aF0.8766328614060129
aF0.31160458117411083
aF0.7301268877230599
aF0.21272491215870604
aF0.7134233658491905
asg12
(F4.261634826660156
tp53
sa(dp54
g8
S'000-012'
p55
sg10
(lp56
F0.09492338878944373
aF0.4345772004207067
aF0.27122415883020956
aF0.09229008083174195
aF0.33995830970210594
aF0.5721906500722429
aF0.3511067493228047
aF0.6509239885960971
aF0.544991678514162
aF0.42817688033689727
aF0.003311608895722906
aF0.0013731729877423104
aF0.04617021374280783
aF0.3344004211359771
aF0.2853867415188168
aF0.7073611029498671
aF0.0038817007837623763
aF0.12998512786710992
aF0.7730933885192107
aF0.4440699130585216
aF0.6592597182584303
aF0.23361498731402375
aF0.23952522422852618
aF0.9669970443742493
aF0.6339615234401424
aF0.7565321266326525
aF0.91107688178239
aF0.5498625752509245
aF0.14354639054881957
aF0.5619141254344711
aF0.265342164550751
aF0.8388175118700822
aF0.9833903769482164
aF0.6738865808786272
aF0.6512650328409254
aF0.48294223798710256
aF0.1387200612693189
aF0.835554709948788
aF0.7616316635809282
aF0.8761737970962242
aF0.8073516959290817
aF0.6500170828702859
aF0.545937736597017
aF0.0903070476678971
aF0.8384340490931849
aF0.4027936354380143
aF0.9040846305130404
aF0.6706760952081714
aF0.10916150320625617
aF0.44045909514999704
aF0.8820290337054798
aF0.10454982916998412
aF0.5144085699395398
aF0.3623494602223487
aF0.943016125320638
aF0.1405757234995073
aF0.8827854199804135
aF0.4149947801136974
aF0.44651136389485213
aF0.35640626182119006
asg12
(F5.123625755310059
tp57
sa(dp58
g8
S'000-013'
p59
sg10
(lp60
F0.5221872524946158
aF0.7290719087372417
aF0.7878055705945468
aF0.5301812274510624
aF0.4739270707728225
aF0.46233085171514476
aF0.0029816391631791728
aF0.6240909863216828
aF0.849112635253263
aF0.379354263645046
aF0.17424989615914543
aF0.6694858664799983
aF0.9296317110885102
aF0.2819824489402346
aF0.47936882866721764
aF0.3393273705172126
aF0.8611447778169536
aF0.028298755583531454
aF0.6876294857864047
aF0.9658341068925691
aF0.4014978002887444
aF0.18447863236123485
aF0.34550414641025595
aF0.8032063397841189
aF0.41561169493385
aF0.520056726647408
aF0.43088045515182294
aF0.6584277390063259
aF0.6945179374818091
aF0.21365576565438593
aF0.6276441024440254
aF0.593483957771654
aF0.7713932237783439
aF0.37553219239750535
aF0.2623183182649985
aF0.6156255454492836
aF0.7462384035003417
aF0.4259157522901653
aF0.4767860997307688
aF0.9473547372044782
aF0.6705780498848317
aF0.35915267779058935
aF0.9964128513082645
aF0.7846459707915264
aF0.15494325398174147
aF0.056678294511329996
aF0.5889633858826133
aF0.16710447984651045
aF0.2101987838471645
aF0.04651703441248922
aF0.18920544381062032
aF0.21131801311770537
aF0.4024546571291848
aF0.08275583718433888
aF0.43369872026830725
aF0.350016013635287
aF0.42977507875321297
aF0.15573137910960588
aF0.5257304033190446
aF0.8206720394934468
asg12
(F7.678386688232422
tp61
sa(dp62
g8
S'000-014'
p63
sg10
(lp64
F0.6343455150539118
aF0.08595655323592
aF0.9147245020134724
aF0.4191275663317148
aF0.9605576402189647
aF0.6191879097318609
aF0.0051074549196722385
aF0.04398614700482151
aF0.4315136875091944
aF0.02137750913511416
aF0.2781886795412132
aF0.14224386532995648
aF0.2657304210731737
aF0.24269669359707513
aF0.3600923022187099
aF0.9373284201625616
aF0.8533281554592619
aF0.3064599033759874
aF0.12908296866898905
aF0.8413429259128087
aF0.3096371515372175
aF0.6618273189040453
aF0.6294721895068692
aF0.6311620990955914
aF0.06022130351059474
aF0.6944992188457483
aF0.8914114281624808
aF0.6989416016954564
aF0.9038258443890377
aF0.4099931916830303
aF0.14681802646464226
aF0.25002287756824615
aF0.4914022393561672
aF0.48036429493834343
aF0.45169332285883645
aF0.842574097858232
aF0.04598407925003645
aF0.5119338625810689
aF0.6072133406858257
aF0.5286025069455741
aF0.06511365149670889
aF0.8679229202047375
aF0.4063290126830873
aF0.8106516227766005
aF0.671457827337554
aF0.10345004097696053
aF0.7586075476916867
aF0.5768783327288419
aF0.8032152370294936
aF0.20178106900547044
aF0.2319327811104559
aF0.9107013867567288
aF0.48623220568683656
aF0.7852586944268758
aF0.2975171277143893
aF0.9799623289275312
aF0.8132178937473054
aF0.967399715453908
aF0.009616159076302755
aF0.6575769259556614
asg12
(F2.8562915325164795
tp65
sa(dp66
g8
S'000-015'
p67
sg10
(lp68
F0.40094076303381354
aF0.6746797383623051
aF0.14508796105068222
aF0.2132618102086028
aF0.5209213288140047
aF0.06591779753233928
aF0.17657609115225437
aF0.0025864591203635934
aF0.815281687830831
aF0.3760783873229333
aF0.882091275509259
aF0.9158016241001954
aF0.8029120182126762
aF0.9066826350360899
aF0.7611478232109232
aF0.005939688578670332
aF0.2912432313021871
aF0.01665941224415446
aF0.054175573902974894
aF0.4606544481319541
aF0.413025252440511
aF0.6879595012794765
aF0.13711062528774698
aF0.2598656199769931
aF0.5736534495945803
aF0.6691609593380199
aF0.6359144223970253
aF0.5918255498649369
aF0.7892091323851641
aF0.2831768996849211
aF0.6546523268847292
aF0.38432316233168184
aF0.6682424659697616
aF0.3473834641035637
aF0.6841896669470536
aF0.10454859940220995
aF0.6718931855482232
aF0.5276741791282544
aF0.39286259540703483
aF0.2552513177625546
aF0.993283872432593
aF0.930851999754556
aF0.8572368102016746
aF0.5410981444495748
aF0.9390820927236692
aF0.5472652143306608
aF0.2657478700671192
aF0.8919805716430704
aF0.4114152148287804
aF0.0768811670577002
aF0.3232917184577475
aF0.424427502782045
aF0.0025042527053137364
aF0.16612958034505365
aF0.060793674591886115
aF0.5181186969617764
aF0.5826956528631777
aF0.04342506611812158
aF0.12640137268212526
aF0.7353538804226162
asg12
(F4.664837837219238
tp69
sa(dp70
g8
S'000-016'
p71
sg10
(lp72
F0.5563043446369593
aF0.4003259154950495
aF0.8125183552427763
aF0.3441782075430906
aF0.32298917313359576
aF0.3626924961329022
aF0.8272432019143308
aF0.07807304426277129
aF0.2558599818149071
aF0.5937471725502246
aF0.2799638694834963
aF0.3128193757868817
aF0.014037161892960892
aF0.9738957033219102
aF0.960401263192215
aF0.5175940097232764
aF0.6130247871461992
aF0.55031973171197
aF0.14834593664811957
aF0.3264518929596971
aF0.850390674443398
aF0.22457529553259037
aF0.3032507257946243
aF0.3051246169101812
aF0.7459666206944517
aF0.791718337513245
aF0.4261830514253684
aF0.6816806254090357
aF0.9759185294070025
aF0.9018095695270643
aF0.813965276836857
aF0.21378504389851638
aF0.7545299269433638
aF0.38780473839629515
aF0.7913990854405195
aF0.4115426098499507
aF0.9869614736260612
aF0.24401836885279682
aF0.6060656648666356
aF0.7233174081266959
aF0.3523636183956146
aF0.2597863175128817
aF0.47518773167403006
aF0.6785193667816403
aF0.4942870313158747
aF0.8062452240361818
aF0.9002280723360959
aF0.5988036127039212
aF0.32696929622422644
aF0.7992547436374243
aF0.24864948165168022
aF0.8994507252929885
aF0.40517916349957395
aF0.6610955891183908
aF0.24512658450103664
aF0.74557780028629
aF0.5035424882785511
aF0.9968310561285849
aF0.2240835384841593
aF0.6251463102489255
asg12
(F1.4031352996826172
tp73
sa(dp74
g8
S'000-017'
p75
sg10
(lp76
F0.12508568600336822
aF0.9505248343945472
aF0.60349196927621
aF0.16768257863888147
aF0.3023626817185773
aF0.7900515018497498
aF0.25989098557451984
aF0.35581268883436445
aF0.41103445733580146
aF0.20149462100340543
aF0.07943826174411417
aF0.9926794745656426
aF0.9632116331446829
aF0.09733597262413385
aF0.0670132900011583
aF0.21164335831380587
aF0.8690778074162736
aF0.36722502610353935
aF0.017490357796884126
aF0.6826331908167372
aF0.25376141845711064
aF0.37565294782158276
aF0.39908059323858047
aF0.10948846257850264
aF0.3292147445310003
aF0.4592397036914252
aF0.08739583675260953
aF0.8253201254146663
aF0.8806250203165372
aF0.6134082879245819
aF0.4816425075367873
aF0.798584506179381
aF0.24414828597497074
aF0.6483531786808822
aF0.2795386346091002
aF0.05232421290419287
aF0.17834342242603973
aF0.475189280502496
aF0.3780933582910825
aF0.775401642275136
aF0.5179630058286562
aF0.8359422013927561
aF0.11368907531934225
aF0.18039000018470108
aF0.44006541066868177
aF0.29072874802001214
aF0.054458753801735704
aF0.7798985184780657
aF0.49190295472386436
aF0.08363213414298154
aF0.778121595251353
aF0.05991148040624328
aF0.18346747646797834
aF0.20930536380478593
aF0.8507201253578934
aF0.7047186577120808
aF0.33752064190077846
aF0.37139675292423513
aF0.08947379101536124
aF0.9792642376491162
asg12
(F3.6367483139038086
tp77
sa(dp78
g8
S'000-018'
p79
sg10
(lp80
F0.06167282574429167
aF0.7069625641938662
aF0.4022215907932075
aF0.8599894342236177
aF0.5903438369584059
aF0.9666359178608763
aF0.7422879181167318
aF0.03980154488347776
aF0.8626927323924531
aF0.40287070975068917
aF0.3194893059532625
aF0.5134479295500707
aF0.5750361594698892
aF0.20928668829754926
aF0.6482621956258052
aF0.9097296827870563
aF0.7658890827050804
aF0.8146598784861208
aF0.8948614684915044
aF0.05515388914432395
aF0.2431084584559159
aF0.7077699489797917
aF0.568585691680299
aF0.3828062006385099
aF0.7264359806044597
aF0.2469460890690649
aF0.3466629718863573
aF0.41011926509132113
aF0.7997616726719449
aF0.4937235116874139
aF0.23771574477068758
aF0.23428520454235147
aF0.3384021133025812
aF0.952609494045109
aF0.06096972657300004
aF0.9263981798608566
aF0.661192164311859
aF0.3614106762647823
aF0.09362404359985543
aF0.918395924250598
aF0.7054599791307088
aF0.766706990444045
aF0.5209068932628951
aF0.1416170634745163
aF0.20550688462025934
aF0.7161020307766847
aF0.022506968502945424
aF0.18689541585859615
aF0.939428581640509
aF0.7465380825297225
aF0.4524359603599194
aF0.9228121647271096
aF0.4908464651538279
aF0.14150134113137713
aF0.44005637381567275
aF0.02282225102931834
aF0.7348384300124502
aF0.6837832609341262
aF0.28015218639291195
aF0.5038598297487051
asg12
(F4.116036891937256
tp81
sa(dp82
g8
S'000-019'
p83
sg10
(lp84
F0.1818594832186634
aF0.48161027467934814
aF0.330442849726704
aF0.3642579514877414
aF0.809937326705606
aF0.708534352709361
aF0.6143709460171203
aF0.06059738589568575
aF0.99932267573002
aF0.584952960741782
aF0.2682105391214381
aF0.5808782748523239
aF0.9733503297993982
aF0.421274772835984
aF0.09959157706014887
aF0.4052862212420958
aF0.7720699570258085
aF0.8582151204579992
aF0.17100769965934837
aF0.34078282687506245
aF0.9764016898998993
aF0.8532946694299675
aF0.42576249703823943
aF0.5949357081929139
aF0.8453137104868258
aF0.23687641889689126
aF0.2964461691479068
aF0.14501943856952482
aF0.9477704262769598
aF0.44978249768487233
aF0.12998301531056822
aF0.24582468617160902
aF0.9646855613013876
aF0.07283437107942048
aF0.8708794802883322
aF0.04476406053490656
aF0.3146609441661249
aF0.38312619228444345
aF0.7131614279076056
aF0.35971757022840956
aF0.8878875152809164
aF0.8905264223429541
aF0.4560176941161118
aF0.08717847834558967
aF0.049247259663572795
aF0.6531253918379136
aF0.8629122989487586
aF0.14939260813160227
aF0.5066281317185326
aF0.35264341605903604
aF0.1385713599101288
aF0.5886085558334921
aF0.9274023033002069
aF0.49763610781237166
aF0.523060449557871
aF0.7302729792460071
aF0.1491798560063149
aF0.6138995589538109
aF0.17375079939785465
aF0.2539137008513409
asg12
(F12.66304874420166
tp85
sa(dp86
g8
S'000-020'
p87
sg10
(lp88
F0.7499590738112039
aF0.7333956277620263
aF0.8618586893846968
aF0.26410131732537745
aF0.9133874776295968
aF0.4271797597878568
aF0.7618244261206015
aF0.9299317817416056
aF0.9488233299203911
aF0.9864426831297266
aF0.35324214778267593
aF0.7811404678509167
aF0.6508590013931508
aF0.21878681434347758
aF0.19049958598231265
aF0.20790343034621395
aF0.9821920414159595
aF0.38226708295329737
aF0.25475773052749195
aF0.20853934089986648
aF0.7113417911867693
aF0.5501951361819468
aF0.543331793952348
aF0.7288802617902465
aF0.07866299597402482
aF0.19522333568199735
aF0.4204103833038748
aF0.13536433468732245
aF0.9713735551884862
aF0.8845719217987446
aF0.1591648675509868
aF0.5542300703045753
aF0.42086255830855457
aF0.9199398707417056
aF0.5374638793567514
aF0.9853288448896548
aF0.0674691013390073
aF0.3448625098745799
aF0.43065338350499327
aF0.16784842867001093
aF0.5483677838706474
aF0.13178472722231338
aF0.02679285134632059
aF0.48514843115356887
aF0.10307882551748548
aF0.7492834355935499
aF0.22904989356350403
aF0.44244994135760873
aF0.3137342131591817
aF0.9420434568819893
aF0.8108710305376252
aF0.30262773490068673
aF0.6393516869983535
aF0.48119690314013375
aF0.5963527377940153
aF0.8118404231892491
aF0.2859796928257392
aF0.8041305105800827
aF0.7272552232713838
aF0.3598654192364298
asg12
(F0.09938576072454453
tp89
sa(dp90
g8
S'000-021'
p91
sg10
(lp92
F0.03141959557504359
aF0.8490580784486892
aF0.7743083560350378
aF0.1811532076798793
aF0.6016980423725753
aF0.8086512581493297
aF0.5900366172139833
aF0.34608862483405267
aF0.31246721120812804
aF0.02192470282889092
aF0.9597999875538473
aF0.01421982706192726
aF0.18002147900892096
aF0.15068090945981882
aF0.6596881787027579
aF0.33862114637340734
aF0.21272833506307676
aF0.46838328800594864
aF0.016399780750051107
aF0.12387323107269654
aF0.6652556699196249
aF0.05597943949314188
aF0.013141205687311364
aF0.7303149836828458
aF0.31326857419344
aF0.9760741351186638
aF0.1790828655158937
aF0.5110389910791358
aF0.32237275686733724
aF0.6552900514211124
aF0.0697972959918377
aF0.39438599410733044
aF0.05618679755918432
aF0.7986960850986682
aF0.6762525919289166
aF0.3284750064651214
aF0.4260403970656481
aF0.4856228317835777
aF0.5042367850532413
aF0.813555342007515
aF0.9944176199773099
aF0.315339705836562
aF0.31974087994484257
aF0.12918771162030918
aF0.7393837898597692
aF0.808919524316474
aF0.39093537009250845
aF0.3596749292389976
aF0.21309559602813943
aF0.3123038814293406
aF0.2344635566897726
aF0.9946595893941697
aF0.49143007760372637
aF0.6476485427412844
aF0.5674411584626017
aF0.3676611287848477
aF0.6114669891269751
aF0.834520309956589
aF0.7087419242310994
aF0.5315670199566698
asg12
(F10.059380531311035
tp93
sa(dp94
g8
S'000-022'
p95
sg10
(lp96
F0.6423556314669149
aF0.4747305330386019
aF0.22731198856073476
aF0.9974916226048669
aF0.3867342917373291
aF0.8996859727707249
aF0.40912198110875364
aF0.9397009277808979
aF0.6977812529196187
aF0.738379225295191
aF0.40503730187079934
aF0.5296923619096887
aF0.7729630935449294
aF0.10591143592421948
aF0.27551634451755613
aF0.9593315824335703
aF0.2973502173502647
aF0.8415741357250666
aF0.4756712395367556
aF0.2918017892659004
aF0.5689331744497962
aF0.947571641546866
aF0.021700347399414954
aF0.09079633581022106
aF0.9430363198164926
aF0.6667013575652639
aF0.6884827977259594
aF0.7034716928358796
aF0.4881342664630729
aF0.3043415648529241
aF0.04314315258229173
aF0.6841969519805184
aF0.3297479216254563
aF0.736312659953026
aF0.806590108916223
aF0.6783044216661057
aF0.4290221085680286
aF0.9142020096111061
aF0.028240027759599107
aF0.9694659641009332
aF0.8499853696804717
aF0.745536684611421
aF0.807059510028632
aF0.40616930131157913
aF0.016743506494548144
aF0.849466267439327
aF0.6915579766856116
aF0.42624712570328105
aF0.5896376642730645
aF0.3050684231582288
aF0.9504862948723175
aF0.7186257503780088
aF0.9503618107168496
aF0.8283902957687278
aF0.41176891121019377
aF0.07559531019032906
aF0.09793005803371635
aF0.3835636092081989
aF0.7008421087409349
aF0.40653670935679564
asg12
(F12.782272338867188
tp97
sa(dp98
g8
S'000-023'
p99
sg10
(lp100
F0.6422725004328714
aF0.6776186489923927
aF0.5386207571116194
aF0.04928099263865715
aF0.48682321122446837
aF0.7639871960504885
aF0.5047980640809764
aF0.35288961882829883
aF0.7698914194192885
aF0.4456721848402385
aF0.3179066468503535
aF0.5911445024839389
aF0.3606002083949378
aF0.6338216099413336
aF0.5765644559597677
aF0.7900289606936974
aF0.5349451381289835
aF0.8053175240283265
aF0.3771229839454202
aF0.46544011365420423
aF0.09156073687146582
aF0.6641127617587325
aF0.895218302116344
aF0.4183011870824912
aF0.13931455836170015
aF0.9781954526732035
aF0.6950212229815997
aF0.24722885268342565
aF0.2488361121142827
aF0.9607153624139481
aF0.2267229062780195
aF0.5675522954042549
aF0.9910873595302848
aF0.24397372268988948
aF0.4778907227556849
aF0.4159063605772947
aF0.4297236954433188
aF0.4125373066928737
aF0.09044978764168354
aF0.8401655566796877
aF0.2965766820441099
aF0.5366876140934314
aF0.3018825887987009
aF0.5201630185862528
aF0.49975676394824997
aF0.36607843062076484
aF0.10838808563947366
aF0.7329427222786575
aF0.18005948833709162
aF0.9294858476446866
aF0.5772625080521907
aF0.2615022625876653
aF0.34820073347302716
aF0.5745487793104399
aF0.7981367699730847
aF0.5418783178096354
aF0.4039854793744805
aF0.7152579216560794
aF0.38165408447634674
aF0.7240124153212155
asg12
(F5.623565196990967
tp101
sa(dp102
g8
S'000-024'
p103
sg10
(lp104
F0.8310651161829242
aF0.6013035638238483
aF0.3312039551462923
aF0.753222438081209
aF0.5218529366023771
aF0.4477634645953925
aF0.25645824843993414
aF0.8214903902297854
aF0.35388785303519277
aF0.3361053082724983
aF0.7636257276512103
aF0.5223784722407704
aF0.8427493153056496
aF0.7126100297339528
aF0.3615113193047138
aF0.8089862442080995
aF0.8561304808910338
aF0.5602579186617995
aF0.5993340308717034
aF0.16019613399032373
aF0.2972988354964273
aF0.9601656563972424
aF0.2990925124215852
aF0.7295125181532255
aF0.7797172115893148
aF0.9343254660187382
aF0.01363347283186822
aF0.4498361935105606
aF0.13117062854057993
aF0.05198090042625836
aF0.6062045552099432
aF0.8660635627415079
aF0.7312923817337376
aF0.4229321245465111
aF0.8712810464548343
aF0.799924919042881
aF0.31821689287449617
aF0.7880001916413724
aF0.9180986131624594
aF0.318956223793295
aF0.4864536007674849
aF0.8039800415131795
aF0.17862622154403163
aF0.7692315889410821
aF0.5953721384938542
aF0.8966738530205034
aF0.4817971259145276
aF0.17887752813746005
aF0.4091962867598058
aF0.2406935923009007
aF0.6559152967063033
aF0.14016022774696923
aF0.5835502940595775
aF0.16421400332248726
aF0.8283306578149802
aF0.940350195751614
aF0.4374482008574865
aF0.29390511281188836
aF0.8113042198388464
aF0.6276473286365207
asg12
(F10.027533531188965
tp105
sa(dp106
g8
S'000-025'
p107
sg10
(lp108
F0.5262599473600911
aF0.5272222127292373
aF0.8689323932516462
aF0.979215960829809
aF0.5044482297832666
aF0.27807389018556583
aF0.12192272618676181
aF0.4154429217228781
aF0.7760952557266513
aF0.7945068412374071
aF0.26138405596131686
aF0.4480656058222352
aF0.7896770223328645
aF0.41616819372813507
aF0.8050969375691777
aF0.16524804795941328
aF0.5496238858573739
aF0.2605085832193105
aF0.2724660633935425
aF0.3788124973163657
aF0.06917195833688361
aF0.16683702592468586
aF0.3761640903697432
aF0.6297425507315498
aF0.09445935024170327
aF0.2735104831990316
aF0.8997674799251288
aF0.7253718942797914
aF0.8187075910467901
aF0.7624381074561016
aF0.7378839316222249
aF0.6562856135410582
aF0.3352818059253845
aF0.9380549944123331
aF0.07465097403576149
aF0.2106788013774329
aF0.031909646110259926
aF0.6202895927409249
aF0.7546741663429755
aF0.043655339249313085
aF0.5207244481266049
aF0.6741004834349855
aF0.0032473399611532283
aF0.45023647289174906
aF0.7108463490138612
aF0.058479365932088356
aF0.42623302417969866
aF0.6307759761299636
aF0.8320553783781708
aF0.8517493742154656
aF0.9514148419139671
aF0.8276991478498444
aF0.22756865022719452
aF0.24285465113376703
aF0.6261247766532114
aF0.9727931487775775
aF0.01073245536886025
aF0.40810524860319763
aF0.2507579433911865
aF0.556751057092612
asg12
(F4.243997573852539
tp109
sa(dp110
g8
S'000-026'
p111
sg10
(lp112
F0.5351261136192722
aF0.752371892636412
aF0.6813927131742326
aF0.15842931464237475
aF0.5743771857496962
aF0.6578981185714214
aF0.5822445853203421
aF0.35228130432183813
aF0.48168189199159095
aF0.9414996150066762
aF0.5482168610577577
aF0.715720105588297
aF0.7915834364098888
aF0.5974951965630674
aF0.951689155344731
aF0.46833162960833774
aF0.27936606183336565
aF0.2064055053041558
aF0.1050638754120432
aF0.2780136737844374
aF0.8635372731964585
aF0.32464119478036724
aF0.9280795908953099
aF0.41877052576431884
aF0.9380348923086173
aF0.9336680843800784
aF0.7181238545313012
aF0.37484449272870524
aF0.40304314188699353
aF0.19983812826743064
aF0.5223685115540155
aF0.3748632928623773
aF0.5129160833764971
aF0.01424614432872684
aF0.08117673166017836
aF0.6371727343732001
aF0.6626220522607217
aF0.628444523337109
aF0.49773748979129917
aF0.4271169459450682
aF0.9976163658257263
aF0.27355577793470653
aF0.11925796045885484
aF0.7774287988498241
aF0.0771801714704019
aF0.11463902157708261
aF0.6775215994271039
aF0.9230280847068716
aF0.4974828850513643
aF0.70667745128047
aF0.5672485827730338
aF0.2051370898279501
aF0.9562081172089902
aF0.031282341504256905
aF0.914276115376754
aF0.5963624244149703
aF0.9237588293073354
aF0.4282016464459687
aF0.02394730970025538
aF0.9165165036950491
asg12
(F12.374832153320312
tp113
sa(dp114
g8
S'000-027'
p115
sg10
(lp116
F0.024245093692136788
aF0.2955412315857504
aF0.12256925870831892
aF0.1791112517212582
aF0.5897344959478704
aF0.7087515339096085
aF0.7639763397081438
aF0.6862911121985977
aF0.08673062575032686
aF0.9917039188906911
aF0.5108090401243918
aF0.8567143392340558
aF0.41720646717146637
aF0.5912360460936185
aF0.4764696638973537
aF0.7188478812190684
aF0.6382918725334736
aF0.11228824489115485
aF0.47775155814535164
aF0.917952979527411
aF0.8478680374626998
aF0.5352592778980613
aF0.5198338612645952
aF0.439017300793221
aF0.1536126648325784
aF0.651428971997684
aF0.6196078126464616
aF0.8107252416803391
aF0.27613576136306295
aF0.4155867028134351
aF0.42752429213443466
aF0.2107265102518434
aF0.7364528501290165
aF0.5364065490152927
aF0.5163028926633555
aF0.8726556973806818
aF0.7440165304284396
aF0.22064920496485307
aF0.33954642787892686
aF0.4077505390649726
aF0.6061432888755589
aF0.6933701808885215
aF0.2708809117204244
aF0.4861286895007588
aF0.19647142112409421
aF0.1868290421235843
aF0.4123764119581147
aF0.41433393122460627
aF0.809328149679177
aF0.0039470562322758695
aF0.4357846750849069
aF0.9043860984191961
aF0.5458159066520591
aF0.1852469686673882
aF0.6964757846838698
aF0.6081044533306832
aF0.12638743064884517
aF0.05471765698246833
aF0.3029271757920743
aF0.7869576502999258
asg12
(F4.531727313995361
tp117
sa(dp118
g8
S'000-028'
p119
sg10
(lp120
F0.32362259696275986
aF0.9604621285443942
aF0.6874404832117583
aF0.30226133183852777
aF0.3303592388490031
aF0.2610125919543078
aF0.8883088824230361
aF0.11835580612291563
aF0.17898188040268692
aF0.12385674063353658
aF0.22725259388058083
aF0.4424692441008099
aF0.511715666911152
aF0.4845175456881139
aF0.10247776671966768
aF0.3007590050194807
aF0.9114675882052382
aF0.569854986495311
aF0.8623939730374481
aF0.3441693216681678
aF0.3207696499889712
aF0.5203694958348908
aF0.33318810206810157
aF0.3609097005138504
aF0.05392904985606395
aF0.3277551652527816
aF0.8204403089893169
aF0.9423314667582264
aF0.6071686080151444
aF0.7807258286142552
aF0.8984887018463951
aF0.3696961129260885
aF0.09933779125068065
aF0.4043167832799097
aF0.38603969410446926
aF0.8315010935182975
aF0.24661174785788198
aF0.8659118888485725
aF0.431684187036805
aF0.4832063976400788
aF0.5485825511389943
aF0.7073221926487918
aF0.5697054786153188
aF0.08382076766807323
aF0.4824837561809222
aF0.861226341103932
aF0.052756877267755575
aF0.2880383947116595
aF0.49509198532344467
aF0.1780445789570727
aF0.020114333833589404
aF0.5811161988015024
aF0.6297844971052357
aF0.8294841926211609
aF0.15558828114899548
aF0.8815549158294632
aF0.33264021102413777
aF0.6043597078842838
aF0.39912721686729224
aF0.5171721082041852
asg12
(F4.235264301300049
tp121
sa(dp122
g8
S'000-029'
p123
sg10
(lp124
F0.9563806103989049
aF0.7055725677421554
aF0.14950709934507567
aF0.3871778682310455
aF0.4662939894478113
aF0.060422671099218284
aF0.44253188172161084
aF0.7072407926588367
aF0.08190293953047245
aF0.4620667304168794
aF0.12099359274788968
aF0.8184446132272502
aF0.8778058324091772
aF0.14276380562941093
aF0.14580206919376915
aF0.005515217674226358
aF0.5833694515510046
aF0.5904816830102309
aF0.0435914676630631
aF0.3848001238962354
aF0.7989053659702212
aF0.7951229271780923
aF0.7067685555018787
aF0.21201519107954314
aF0.7831409961253812
aF0.7010184179973794
aF0.8731055312210461
aF0.9212256006376531
aF0.9555114767754972
aF0.6070783254162854
aF0.5919083805658188
aF0.7599128938801601
aF0.7977865624464323
aF0.9920714182551879
aF0.7742197711506509
aF0.7801095235122326
aF0.3582291893075452
aF0.9993363867663495
aF0.7448195793418543
aF0.5391928100360712
aF0.738336801833709
aF0.04063546287876685
aF0.6783578398688428
aF0.13540307796954543
aF0.3971425221781477
aF0.8124230375993728
aF0.48451974759169136
aF0.620854433858289
aF0.9516795466962369
aF0.29952789723537376
aF0.2230643126185774
aF0.15427806793177312
aF0.16293877695050496
aF0.05771190196222886
aF0.5723406890080727
aF0.9148039759369427
aF0.9193728109116495
aF0.010852215311043079
aF0.2403480247951928
aF0.6976825721082217
asg12
(F4.947485446929932
tp125
sa(dp126
g8
S'000-030'
p127
sg10
(lp128
F0.2819550048461471
aF0.5582699809506707
aF0.28038943712022635
aF0.614368561167338
aF0.8307097884235166
aF0.4838219420919423
aF0.6712612951064212
aF0.37238958574586434
aF0.7397276306193726
aF0.15205886557092851
aF0.8249558969990217
aF0.8932846867602452
aF0.3939714344055474
aF0.12102959459587825
aF0.12811374246765406
aF0.7877868019160997
aF0.761543127638076
aF0.32508567771679064
aF0.23255652724247455
aF0.9672440685985312
aF0.2221620783151389
aF0.4853633688254245
aF0.471883988821311
aF0.5839855115780006
aF0.9504943670501871
aF0.3018118997481818
aF0.44012960791334543
aF0.9812421698638897
aF0.593972644103244
aF0.7517927590707802
aF0.9061941302777327
aF0.47075389059094797
aF0.828440787569122
aF0.1141691096280586
aF0.806281757921214
aF0.3212647970913093
aF0.4758022382360112
aF0.029524154832461513
aF0.7634421083047814
aF0.8605303555075466
aF0.5200560136338123
aF0.5310114211806689
aF0.9985060352948878
aF0.32562729542716196
aF0.850538133767775
aF0.7130393503434775
aF0.6993516538372596
aF0.9112364497447765
aF0.2614185783009565
aF0.021635764944843427
aF0.20403555211469793
aF0.8316751739897938
aF0.8184040375655892
aF0.1678628411055515
aF0.4735928170308349
aF0.025899020003800066
aF0.34555327262498625
aF0.417795055751781
aF0.42161380371755985
aF0.3354069284555925
asg12
(F6.10604190826416
tp129
sa(dp130
g8
S'000-031'
p131
sg10
(lp132
F0.08150307410663737
aF0.5647752999038442
aF0.08548923723144419
aF0.7702025745898383
aF0.10653340200044192
aF0.7197403742569393
aF0.5358357958427019
aF0.8861424640581119
aF0.5068788574530803
aF0.5792482681789232
aF0.9807054906040961
aF0.9834703828901156
aF0.11384264245786935
aF0.15206816195877182
aF0.07859562204401715
aF0.45286478616151227
aF0.05111030961046659
aF0.9755439657043113
aF0.44511051842529703
aF0.5470061845529052
aF0.5020428252353517
aF0.6060711779645068
aF0.6410650700829247
aF0.44875332961943093
aF0.7736457955286885
aF0.056431496981957485
aF0.5359365570742145
aF0.24861100491417343
aF0.7234271260264037
aF0.20395413336918122
aF0.10787522546372463
aF0.03941040524855288
aF0.4290615777309629
aF0.5439858553373775
aF0.7836393427677372
aF0.7314685033179879
aF0.7373894186668255
aF0.7109901429887039
aF0.9325546548226115
aF0.6453487341273756
aF0.6087734752649655
aF0.0970075789895598
aF0.29501371650123864
aF0.4542452962043413
aF0.5227950374184053
aF0.7188204731300568
aF0.3741087301217193
aF0.9456597535161724
aF0.9274320370409184
aF0.21725704230549203
aF0.3663708650018599
aF0.8371737703052198
aF0.40287387921181594
aF0.9896047407170907
aF0.9857470410509618
aF0.8532970041879198
aF1.1619375544946742e-05
aF0.5826637990339649
aF0.9706443121600733
aF0.8611290847668832
asg12
(F4.065248966217041
tp133
sa(dp134
g8
S'000-032'
p135
sg10
(lp136
F0.8833131989921318
aF0.46919397075225666
aF0.2865842700287541
aF0.5779799440077517
aF0.5767764358483444
aF0.7669323596399096
aF0.8043183297828337
aF0.012221806636688037
aF0.45840137361383215
aF0.6656173110827891
aF0.04207581108255165
aF0.25108487315043726
aF0.8695824792390879
aF0.27000694015028426
aF0.3311086308303054
aF0.754400406628062
aF0.9070608485098666
aF0.21735869446372968
aF0.46826091222810173
aF0.9712839731435885
aF0.7598408404775371
aF0.6800660230486726
aF0.7181810692757267
aF0.7603808514228272
aF0.9416405447311315
aF0.7077101740443891
aF0.3513010269710827
aF0.8150471582502903
aF0.952192385761379
aF0.8715702481246915
aF0.4415752759999527
aF0.03502499747439036
aF0.8924577876480013
aF0.16677185776475167
aF0.9872575350114146
aF0.5074084389466305
aF0.16552368909995585
aF0.7869046000677214
aF0.5446127755003496
aF0.2832280334417995
aF0.10996833798120553
aF0.12942128386218066
aF0.7691709646728028
aF0.4876799386502165
aF0.4702566063503263
aF0.9075136108464331
aF0.8505247370836854
aF0.4324424910311373
aF0.7300650272531862
aF0.8148976086740269
aF0.38188037463210633
aF0.1347894061093753
aF0.9439492628788535
aF0.23804879113189992
aF0.9520011693180004
aF0.23642045648329113
aF0.7453058555738586
aF0.07978072133792002
aF0.4858921762048892
aF0.6511188786338864
asg12
(F4.217722415924072
tp137
sa(dp138
g8
S'000-033'
p139
sg10
(lp140
F0.7688956314097233
aF0.3806681930139131
aF0.7141291078509219
aF0.10755115539557636
aF0.7592177122301276
aF0.953512919451011
aF0.5475126192042042
aF0.0062288319421557325
aF0.6956598751576266
aF0.6828301409136213
aF0.8315268976447044
aF0.7052104361796988
aF0.1376413646637833
aF0.7346197188606829
aF0.3797676643380077
aF0.8419698086605059
aF0.5859132630104656
aF0.42491337451667877
aF0.46748028333691594
aF0.6299705633809004
aF0.4277842443512525
aF0.11894567328742955
aF0.5856202347183228
aF0.8687017245816171
aF0.6884663480148829
aF0.5361997105046301
aF0.3663254491545379
aF0.3485418493557244
aF0.3066972597490093
aF0.9427082037715684
aF0.6566016401938479
aF0.2274264077000555
aF0.7325076576901361
aF0.25757562533394696
aF0.3883078435490551
aF0.3985471692207171
aF0.12550005615002635
aF0.17903571847024258
aF0.922915992204926
aF0.9575571374876858
aF0.2339007036222378
aF0.030056143865828444
aF0.6089601760851342
aF0.09338841746751525
aF0.07988654300161402
aF0.015258627810517456
aF0.36327844352400873
aF0.49061578011313633
aF0.18502001151817415
aF0.42542922900484703
aF0.5029608116607194
aF0.5439692969606295
aF0.02529536202705218
aF0.9614102948466298
aF0.4725172648803344
aF0.22275582074355216
aF0.8628790574444201
aF0.1974359515080616
aF0.39531513282416186
aF0.42563738080944247
asg12
(F4.194229602813721
tp141
sa(dp142
g8
S'000-034'
p143
sg10
(lp144
F0.45633846411220114
aF0.31550441670394125
aF0.46363608616776597
aF0.3086209926362171
aF0.013001842474000158
aF0.479695830013139
aF0.30240862309421357
aF0.9165722604554994
aF0.3919531148867911
aF0.3953272247666064
aF0.028132711860598292
aF0.19049827858512436
aF0.4788274317311394
aF0.6097522384366526
aF0.9310995372001355
aF0.15930329617201355
aF0.16021642256985658
aF0.9476119923414618
aF0.40727218275839006
aF0.4373652428519995
aF0.5150958215206204
aF0.2928054422059627
aF0.9440024398411339
aF0.8996997226840975
aF0.7327508858494941
aF0.20594734689782201
aF0.9347633956826561
aF0.9614353525661347
aF0.9076805004034405
aF0.9430166720420906
aF0.37225413790947737
aF0.3466794452423485
aF0.645020301707935
aF0.8432661872386932
aF0.14236224080797777
aF0.9226715688934274
aF0.3398113164363529
aF0.5333109774625219
aF0.9799317055633698
aF0.18489939447287096
aF0.8892806096480511
aF0.009461479695962782
aF0.4277904257249021
aF0.10835439122956425
aF0.9244865236364798
aF0.7374273273821245
aF0.3557242602177507
aF0.3767437122118312
aF0.1504287911786607
aF0.07972094867172486
aF0.7768275287221743
aF0.8446610939161083
aF0.1443128949190028
aF0.5522889707569374
aF0.7600279012630509
aF0.6822277039300773
aF0.6833004887260508
aF0.31444861136096725
aF0.2723612722164602
aF0.9558687908677073
asg12
(F3.3158812522888184
tp145
sa(dp146
g8
S'000-035'
p147
sg10
(lp148
F0.9459963211314173
aF0.9953882196488499
aF0.7215317130433107
aF0.6153938510490644
aF0.6333924383458517
aF0.8303211740483851
aF0.030635125366440863
aF0.02449573825839213
aF0.7075530301136171
aF0.7789323677665919
aF0.5873174827114709
aF0.5214604501519425
aF0.11095216594958801
aF0.07078596492406442
aF0.29718848283138777
aF0.13002843574380984
aF0.873505496561198
aF0.2666113784339572
aF0.334285518106721
aF0.5524211742087619
aF0.710921879464762
aF0.9823633659249249
aF0.3123773003272585
aF0.44520593995758995
aF0.2197113170170384
aF0.33070550686840594
aF0.06895478696222301
aF0.24060207680334322
aF0.14961332776607883
aF0.5698041983752182
aF0.43180054706484916
aF0.006196599500361111
aF0.03772748886588606
aF0.8264835512883377
aF0.5070039812110484
aF0.42141784129122717
aF0.7230250471075669
aF0.4408460226889024
aF0.7183783717647684
aF0.9550795074280927
aF0.45521507346987156
aF0.8513213582328996
aF0.9027942284609743
aF0.7550271716573937
aF0.9728393562948588
aF0.7863334712237495
aF0.9331360163791683
aF0.46407552295350274
aF0.3705659396465518
aF0.44677377129445006
aF0.8203583613495913
aF0.6427369424839299
aF0.9388006332954208
aF0.3573727266458916
aF0.36089158655120623
aF0.874565005677838
aF0.3999762181783838
aF0.03024263120951265
aF0.2188151245329899
aF0.42764743411159833
asg12
(F4.244230270385742
tp149
sa(dp150
g8
S'000-036'
p151
sg10
(lp152
F0.7393345004073422
aF0.9474774340204306
aF0.08008568372825664
aF0.2648902265827201
aF0.37373287998440985
aF0.08672433574042071
aF0.6533758012361692
aF0.34022277855718475
aF0.5777926936573256
aF0.3223527896557513
aF0.26055989693676895
aF0.8030547340254102
aF0.8908347501825563
aF0.5724538221339592
aF0.3951002194275913
aF0.3382373497126664
aF0.41513726697765163
aF0.8431597640045676
aF0.6950862672968323
aF0.42546059818483783
aF0.34263145862887956
aF0.10333482721547005
aF0.6015364889538465
aF0.9247998854508623
aF0.836549296846385
aF0.9101541104460581
aF0.08451979077743599
aF0.9370742839150046
aF0.9568315140949128
aF0.6930514216783284
aF0.1251921484614782
aF0.03079262703375918
aF0.8294835261819273
aF0.2583233392654882
aF0.683280623228822
aF0.5548178559524559
aF0.1852281374884902
aF0.4031574134627177
aF0.5311411102355823
aF0.18294081383585492
aF0.34061038412731415
aF0.9328320773544263
aF0.6710182294862317
aF0.3683105946465729
aF0.29322251733104354
aF0.4291039473374877
aF0.8915826973026622
aF0.8612224893490523
aF0.22102132848590694
aF0.863668435291797
aF0.18115772876927527
aF0.6697959883678316
aF0.04587003281713131
aF0.2921270200941002
aF0.16652194971451195
aF0.05923809295843918
aF0.41903967616702287
aF0.7950534446856291
aF0.9549573427831407
aF0.8902572747787542
asg12
(F4.182701110839844
tp153
sa(dp154
g8
S'000-037'
p155
sg10
(lp156
F0.7276936051459763
aF0.7923006665469263
aF0.4248439475323398
aF0.4793925253910002
aF0.43987936922852344
aF0.2510591512229141
aF0.08060623889250351
aF0.6332014167066714
aF0.5659362479645482
aF0.8974492298781024
aF0.1868247903607263
aF0.628949423452669
aF0.22405165508225433
aF0.40022759169143673
aF0.31960517835807967
aF0.10830630895700444
aF0.49280810458347224
aF0.1733870061789622
aF0.5113484566258886
aF0.20677156641701522
aF0.3351421349361089
aF0.45669500800321394
aF0.6193695068055362
aF0.7525949997387644
aF0.25786497371520756
aF0.1355307247470683
aF0.6897575109970098
aF0.5115540478335389
aF0.2405006317451701
aF0.14597076917931773
aF0.3507106199574501
aF0.021268795522536466
aF0.9718517188287902
aF0.7091579500864631
aF0.12764492972820618
aF0.31616931828945893
aF0.08872540359889514
aF0.415059620733236
aF0.6460352667183366
aF0.5284604217032532
aF0.15356746369021268
aF0.13940507601088514
aF0.3110082244616069
aF0.1656406613518625
aF0.9483788792369121
aF0.9533851042393636
aF0.01555043900202957
aF0.1357616256424673
aF0.17096181674934074
aF0.7045714625600283
aF0.12835574087452384
aF0.47086528018593066
aF0.9640436509552358
aF0.5153471262877768
aF0.8252515963011497
aF0.8490248817303365
aF0.7033830175400796
aF0.13414330754559867
aF0.7735040153177147
aF0.5475445661942686
asg12
(F4.340422630310059
tp157
sa(dp158
g8
S'000-038'
p159
sg10
(lp160
F0.09021056327335708
aF0.8361279659517123
aF0.2874949477389547
aF0.29640128723049564
aF0.43094941017595856
aF0.6440049221895372
aF0.49968007615124976
aF0.3130238888600565
aF0.9475461364584422
aF0.21475064404737831
aF0.357824392893357
aF0.8893780523735214
aF0.9461474890584255
aF0.4338562218665928
aF0.8584263105797432
aF0.9537132569685404
aF0.942311289767807
aF0.12486659542221878
aF0.28993369531101987
aF0.9843858202159468
aF0.6242781324245578
aF0.936184270596986
aF0.039338065592389726
aF0.2670386969066969
aF0.0016832927650236584
aF0.3471793256178254
aF0.8385787594778643
aF0.2913835932923501
aF0.8839540380780817
aF0.03248486082925173
aF0.4334283586702503
aF0.0029976562608455826
aF0.006595320215018297
aF0.26694439552630933
aF0.0010635298853162167
aF0.7550087387205282
aF0.009668110931700946
aF0.5301303172398534
aF0.22389902508423676
aF0.5385043190530477
aF0.04604646762957931
aF0.5843676398137398
aF0.6796909595922911
aF0.21925890820182004
aF0.3623167439928815
aF0.4447794171151048
aF0.43462122412964854
aF0.2012276474113146
aF0.9774584746535125
aF0.37056240021233045
aF0.6176428694884918
aF0.42867623577711145
aF0.28940470501773985
aF0.6581584890431742
aF0.4948777050868557
aF0.007836383239102629
aF0.821560688173357
aF0.038487766662878786
aF0.790575056637695
aF0.9625832166211408
asg12
(F4.274367332458496
tp161
sa(dp162
g8
S'000-039'
p163
sg10
(lp164
F0.17491337854331157
aF0.8987094501802776
aF0.018972238002204378
aF0.19587429711127813
aF0.4560003857070567
aF0.8387949314588681
aF0.6498815518188907
aF0.2138995044467885
aF0.6770425190475182
aF0.41893325489750166
aF0.3693679410926931
aF0.48934566483736996
aF0.3625347380010635
aF0.45089141534661825
aF0.4291361822875909
aF0.18268443278666302
aF0.5677370429988705
aF0.07910236683955962
aF0.8364458366982187
aF0.08487655827593032
aF0.24617494202229218
aF0.900792875477584
aF0.2823314170403528
aF0.4540035764792253
aF0.7007446235887357
aF0.3471883637311811
aF0.8191730551068516
aF0.6956987238854528
aF0.5955899942606998
aF0.9444195555474544
aF0.4594597564218684
aF0.5712456512349604
aF0.8103322067560765
aF0.07794790487216263
aF0.36551400009557844
aF0.7448031885135694
aF0.954597196814126
aF0.6754200702823279
aF0.19492020524886655
aF0.41572166336144634
aF0.10285121391696883
aF0.5749701553518557
aF0.09185193288468685
aF0.05068218683816639
aF0.2360483388522353
aF0.6295663377769407
aF0.4102766582621249
aF0.42649630130480165
aF0.1133336573788527
aF0.10250500471932444
aF0.4746714700736461
aF0.017653267022261998
aF0.45830712926981765
aF0.7584362231998849
aF0.11089603690723848
aF0.6766067902736153
aF0.8894704125193676
aF0.9491450584216401
aF0.16447992641355347
aF0.3485744526324406
asg12
(F7.151758670806885
tp165
sa(dp166
g8
S'000-040'
p167
sg10
(lp168
F0.7446582290156065
aF0.04660822772993245
aF0.17648065334418916
aF0.4802594062109625
aF0.6599017146049598
aF0.8350681752154847
aF0.6028976316844032
aF0.9668738864357448
aF0.5724248126467048
aF0.7112388899207563
aF0.7512113118658893
aF0.5972266483443729
aF0.9158738563634798
aF0.07455777969428312
aF0.12089694616927749
aF0.722914997548369
aF0.7799126326303482
aF0.7584428984366552
aF0.26893487111934744
aF0.41052886914003817
aF0.6810234236947489
aF0.923320190313159
aF0.8224381392157633
aF0.5156237820734639
aF0.9367068078609573
aF0.8998474790292088
aF0.7071082039698309
aF0.26749380931697164
aF0.8647328599251364
aF0.8975943083215694
aF0.7373592629249813
aF0.18136225606247713
aF0.6050795507207704
aF0.20943830499066773
aF0.49809897468134756
aF0.7863410750882632
aF0.0448470080240021
aF0.008542102153316744
aF0.10055205312015814
aF0.8108452389456894
aF0.5898378258741419
aF0.7230324094274057
aF0.6914793281659237
aF0.39814169268792166
aF0.9044063997085902
aF0.9182214156442745
aF0.5718107005583326
aF0.376703733425517
aF0.8789712963060682
aF0.06857857118042643
aF0.6385725809524687
aF0.9289386086453219
aF0.47196779815646084
aF0.9899621984864025
aF0.06987765016870351
aF0.9906976504573449
aF0.6783238442837407
aF0.11278724680662222
aF0.3254007684905065
aF0.6962337146653153
asg12
(F4.236705780029297
tp169
sa(dp170
g8
S'000-041'
p171
sg10
(lp172
F0.6837936965530286
aF0.5136014077936235
aF0.15283726816557475
aF0.443724387091162
aF0.608070162320924
aF0.2359248112972102
aF0.3399462130515296
aF0.40501618591857613
aF0.041516931068331875
aF0.9459687848414052
aF0.29549480334947664
aF0.9814350711495459
aF0.20693667525030024
aF0.8234100578012998
aF0.43890197061484104
aF0.22244834470685237
aF0.09154985530042825
aF0.30067367604016404
aF0.7232117188977939
aF0.4006521065976528
aF0.8121540511591002
aF0.21882843888966874
aF0.3173522873262795
aF0.560781397062894
aF0.21224284564240525
aF0.4139727505708627
aF0.1408482651859313
aF0.4525300876983801
aF0.5920070481848946
aF0.3140418344999263
aF0.014830127198057541
aF0.3675839013772094
aF0.8388325070192741
aF0.5946210968050085
aF0.6990364112942847
aF0.23400917630058127
aF0.663859527847028
aF0.6246438900660363
aF0.9924463760917751
aF0.4965757806844593
aF0.8207948886376317
aF0.8142106867483488
aF0.20266572097380242
aF0.13802595546983454
aF0.758282483671725
aF0.223676417245246
aF0.15449554730670467
aF0.2645168987845923
aF0.3398747569669345
aF0.2229400653397925
aF0.33360743882424326
aF0.6335703510881577
aF0.8242503659185083
aF0.42101861541315355
aF0.7540145091697972
aF0.12380557253459046
aF0.7426787087396636
aF0.861631775722135
aF0.9657208935176987
aF0.3873806280112193
asg12
(F4.108240604400635
tp173
sa(dp174
g8
S'000-042'
p175
sg10
(lp176
F0.5803656193060757
aF0.8384574967747196
aF0.06275252941389953
aF0.915114231465846
aF0.4075711746714039
aF0.9526479445164786
aF0.3238461514470572
aF0.3185111112591855
aF0.9448574919733975
aF0.76618384528982
aF0.9994916730192085
aF0.7718033920606558
aF0.3790810190408753
aF0.6359639558932783
aF0.614019674315543
aF0.965696470199444
aF0.1551525469665339
aF0.2944344110406789
aF0.5024521232705808
aF0.7379249781519632
aF0.29349791014213544
aF0.9815867275983736
aF0.29127682683382283
aF0.8844848145583089
aF0.9636207144732253
aF0.6880828831776772
aF0.9958593300640833
aF0.33481253295331814
aF0.4288182610249386
aF0.1429403518387108
aF0.2379989151735702
aF0.023619300701524293
aF0.6042558906757619
aF0.19417609289893067
aF0.7701123261188451
aF0.27799516483931486
aF0.1864578606922207
aF0.5138849465293878
aF0.43161362012268756
aF0.06769059694971213
aF0.12125948243403362
aF0.5639045432114921
aF0.7252950306732739
aF0.6583547932545792
aF0.1221451092428687
aF0.10049738108994755
aF0.11060266376885108
aF0.5093303270537974
aF0.6038973144368431
aF0.6813486809243088
aF0.4731161210719087
aF0.5965727348353611
aF0.6479311297666561
aF0.48872377542915924
aF0.9090178080916338
aF0.10463793839488988
aF0.7713043660914258
aF0.9940206169037892
aF0.6527448949560651
aF0.1595213605402429
asg12
(F4.158442497253418
tp177
sa(dp178
g8
S'000-043'
p179
sg10
(lp180
F0.9779824383164536
aF0.7515375788719578
aF0.7561781958356316
aF0.85614960298405
aF0.5071831296110515
aF0.7498859420602236
aF0.6770434055643244
aF0.4328991006337991
aF0.7544860524139603
aF0.9111803946984914
aF0.646016898247585
aF0.46073385674729217
aF0.5460532753053182
aF0.5971588300910595
aF0.8554371408594743
aF0.0348861263507243
aF0.4707175740880686
aF0.11180804701001612
aF0.7835265750835947
aF0.7034214204581327
aF0.1207485044105574
aF0.263516147838722
aF0.4380599900383053
aF0.44257437025062873
aF0.6057321255374751
aF0.122165807688696
aF0.8438843553674052
aF0.20665307974235958
aF0.5093609191053903
aF0.0002439144986863262
aF0.8573972803409149
aF0.08959587675454872
aF0.797099813066614
aF0.4742220893291309
aF0.7007868946104224
aF0.5364189619646276
aF0.26997514252173205
aF0.36306072365800357
aF0.9120572815432597
aF0.8115307610719631
aF0.7713184786638878
aF0.2292803464312858
aF0.2409341763483036
aF0.5683877619503399
aF0.19762559112072076
aF0.41340034325803265
aF0.8568241866104067
aF0.8893955423660064
aF0.6477531284501216
aF0.3435314937179844
aF0.5890767091523146
aF0.48448727446238127
aF0.29701124476462615
aF0.43409449379255327
aF0.623079898924438
aF0.49577216384219935
aF0.9805736093380334
aF0.07995228377027219
aF0.6416106711725467
aF0.5839094314738595
asg12
(F6.752761363983154
tp181
sa(dp182
g8
S'000-044'
p183
sg10
(lp184
F0.6470049546335997
aF0.940893370006153
aF0.11640286578670755
aF0.6448475807105536
aF0.8602751394978594
aF0.46975454479742973
aF0.16732626876583945
aF0.6771512754131815
aF0.7200778011171448
aF0.5354560536132325
aF0.3879156809044413
aF0.8708884740915587
aF0.2498455049950412
aF0.3424060605994069
aF0.343030195925768
aF0.15293385701505635
aF0.20206041889878623
aF0.42623923249690165
aF0.3615860899208905
aF0.5412488578011106
aF0.7808627599356004
aF0.7726029634644095
aF0.8383874423126991
aF0.7476738612150555
aF0.5263875228496246
aF0.05150444289713618
aF0.24844035990702296
aF0.7606368918233978
aF0.6269073256052533
aF0.7608320329196169
aF0.8076270162591227
aF0.7703129713949888
aF0.4786784136318114
aF0.05889375222191395
aF0.24178641434189585
aF0.5804634391810789
aF0.6088723539273343
aF0.4783514100215558
aF0.9730796308108284
aF0.9942282888135473
aF0.8699150518566627
aF0.6351828149466199
aF0.29409287510487825
aF0.7753866309569329
aF0.028463792908937746
aF0.5911650704803219
aF0.4984564857181074
aF0.5481255362114656
aF0.6761907911536348
aF0.7993551612897989
aF0.9133825504851231
aF0.34497662701553866
aF0.6339960065581761
aF0.5836450012257306
aF0.42129304978229776
aF0.2460406489910798
aF0.3094741807710616
aF0.9621102316580389
aF0.6637009371908502
aF0.0549227387338207
asg12
(F4.2404398918151855
tp185
sa(dp186
g8
S'000-045'
p187
sg10
(lp188
F0.3297946475285449
aF0.4345677230761892
aF0.5214357285078688
aF0.04071407632338153
aF0.9696848215594518
aF0.21828386281339862
aF0.18465314511693054
aF0.29381151275529827
aF0.22501985542516934
aF0.8053267879072499
aF0.3126448287208139
aF0.2249294373315206
aF0.109741168437131
aF0.15052772843977602
aF0.5426181764809846
aF0.8009626985196391
aF0.2923572569328662
aF0.8376018258103868
aF0.8763939929754805
aF0.18849913007593588
aF0.30309847525932254
aF0.5116891270745604
aF0.9992906970164622
aF0.742321248346085
aF0.013739332320899633
aF0.6588510770121084
aF0.9803193833946063
aF0.16649917989633678
aF0.09221409507797906
aF0.3724483622873881
aF0.04688472273872213
aF0.268682829709451
aF0.6927247065044235
aF0.08112742258088468
aF0.669942780157567
aF0.9640715039909866
aF0.6549019284927832
aF0.6697618949651599
aF0.7385522160821275
aF0.06270560667379654
aF0.6235534056283726
aF0.5078236575566332
aF0.2910075000021084
aF0.6886485630616954
aF0.5173442806568237
aF0.474272811165395
aF0.6288007249382777
aF0.9740155513392272
aF0.7692636537407025
aF0.9554775366859352
aF0.0928811454072953
aF0.4966814858149754
aF0.7250945501410069
aF0.30777148037573077
aF0.5168203104509663
aF0.03491973388018821
aF0.10431659857185538
aF0.674715385627046
aF0.1697172919010267
aF0.027666180513340688
asg12
(F1.473582148551941
tp189
sa(dp190
g8
S'000-046'
p191
sg10
(lp192
F0.031786917111903956
aF0.6656130631249969
aF0.6437631443244582
aF0.46254959220046954
aF0.4719099501810897
aF0.06155384967039357
aF0.4732631344957481
aF0.41741016973121736
aF0.5013506817194803
aF0.6148794187484511
aF0.7699119491867744
aF0.2947608032793425
aF0.10465905499546346
aF0.2835664375368693
aF0.6869873677237709
aF0.7961789004569602
aF0.8318741498828154
aF0.821659248467869
aF0.5821726486189477
aF0.533800349829852
aF0.5029069133734623
aF0.00959334594349126
aF0.9500776736006882
aF0.5632643373337967
aF0.578476650136003
aF0.5088046105769034
aF0.3401468464452133
aF0.006795983882462053
aF0.4671145042170979
aF0.15058749554892137
aF0.974259969476534
aF0.26315582680876226
aF0.4802563979456307
aF0.9158186250755734
aF0.6854782600809602
aF0.21854838325748716
aF0.5080615552540787
aF0.4221179352703046
aF0.09403043818978996
aF0.634030808258591
aF0.3941318111846972
aF0.10654080645840092
aF0.6000569118855038
aF0.03147488433239232
aF0.5918223321825572
aF0.26315547844383
aF0.582377383032634
aF0.9649905230367378
aF0.8314342514571254
aF0.4082653320711027
aF0.525571186593111
aF0.32867124663447167
aF0.6070929193114822
aF0.46383578852479357
aF0.025069816664803457
aF0.4585654416357734
aF0.7079135744360132
aF0.15375393106048285
aF0.5857602361143537
aF0.33028165051498803
asg12
(F4.234163284301758
tp193
sa(dp194
g8
S'000-047'
p195
sg10
(lp196
F0.5598130332494005
aF0.6559372842301836
aF0.900992355414794
aF0.3285468358270339
aF0.928353386571993
aF0.1306859462866372
aF0.7777569013029187
aF0.06870889305164174
aF0.39167366080793775
aF0.2457483456877484
aF0.24983215762363098
aF0.37256661979131833
aF0.9693292136098091
aF0.23521734154284657
aF0.44362411839679483
aF0.7952344299762529
aF0.5482274648067809
aF0.3963473293930946
aF0.656564875629074
aF0.22097053646065645
aF0.8361933297520712
aF0.5760050617319636
aF0.9849539270709169
aF0.27892378651609806
aF0.6616046370070277
aF0.8659199564492341
aF0.6785305424588711
aF0.2957901358760917
aF0.7284795388102179
aF0.6582759778098535
aF0.251948085527553
aF0.5302717744404032
aF0.6691004013046031
aF0.6462655247194872
aF0.4829857451414449
aF0.5571120940322698
aF0.8123176697857899
aF0.6402862238773829
aF0.3095853446757547
aF0.855444354940691
aF0.21248709333881177
aF0.01304544261370466
aF0.9978433671894164
aF0.9142671770662175
aF0.026476475513210862
aF0.4900368385828269
aF0.5097020213346484
aF0.719487747916186
aF0.990173180981101
aF0.25004408426649016
aF0.8957974478831408
aF0.5071247377010774
aF0.9994527147264319
aF0.26342387782018095
aF0.8041024281750773
aF0.37422372040677154
aF0.7497470542208073
aF0.33640538523487395
aF0.2749060204633512
aF0.5684111442873384
asg12
(F3.48868989944458
tp197
sa(dp198
g8
S'000-048'
p199
sg10
(lp200
F0.8914725780427959
aF0.9748726163978747
aF0.873367935106065
aF0.9949652135367139
aF0.05529027942694997
aF0.12090218076191639
aF0.9376840436881916
aF0.19373872541749027
aF0.33786622790421017
aF0.8317079646742486
aF0.9887048190397211
aF0.05052019426499932
aF0.32677127116023963
aF0.22665777901838335
aF0.3151595304904957
aF0.2445967873970677
aF0.9010090873725793
aF0.2950438451971744
aF0.9554832203698491
aF0.13298051229284447
aF0.5814362777028764
aF0.7813611559958745
aF0.5242647697330809
aF0.1318965757563485
aF0.6097426629593709
aF0.4153647513230302
aF0.09314654144180268
aF0.912234062485137
aF0.07731660090288583
aF0.8985639565570213
aF0.09786684182010341
aF0.47661026073068
aF0.5812665760644624
aF0.13822240234085803
aF0.684768015329449
aF0.3652553333239539
aF0.43850595889844124
aF0.13581282944219186
aF0.9155833985400487
aF0.8472792768478778
aF0.9223607437417531
aF0.4610940513085032
aF0.4897607714733775
aF0.06302725008032417
aF0.4254661797932109
aF0.9438301096751381
aF0.6734459898312464
aF0.5656634446685996
aF0.48717693862248235
aF0.19421686845232067
aF0.8004395243240091
aF0.6788888674418134
aF0.923609743785049
aF0.027369029813290258
aF0.07246705663434516
aF0.02315013811269373
aF0.5993066457571387
aF0.7799068903343316
aF0.9241344182836871
aF0.5772433548697951
asg12
(F12.367050170898438
tp201
sa(dp202
g8
S'000-049'
p203
sg10
(lp204
F0.8118780153348245
aF0.08172912961647416
aF0.997077431351053
aF0.6877121783611846
aF0.8093352252894648
aF0.5768053460363602
aF0.2533683305563327
aF0.7226044567512924
aF0.3937823936401863
aF0.9389392992354388
aF0.6353367656903405
aF0.8942894497570677
aF0.049893117237756246
aF0.6810510857776363
aF0.8911092750152476
aF0.14450571959452552
aF0.8158490887855271
aF0.7775469347555047
aF0.7096556774612035
aF0.2644912716917057
aF0.41875081338351894
aF0.4008278716836481
aF0.8996751340526873
aF0.028249582808807072
aF0.18664692136013794
aF0.8479324780710787
aF0.293465580467964
aF0.7115015078335956
aF0.6185602517262103
aF0.6808301648380183
aF0.8866859914016243
aF0.21161170912039584
aF0.9450278691558971
aF0.8251445388358352
aF0.3422596303533736
aF0.2629097932065172
aF0.6703236663161262
aF0.672588692802626
aF0.9144357243446933
aF0.5098001853200639
aF0.3620198730665318
aF0.4616316994701898
aF0.3308087450578002
aF0.9243750545600664
aF0.15871493953557336
aF0.9368133903022563
aF0.0250252932879359
aF0.46690437103691473
aF0.0189321882617689
aF0.6594389739413058
aF0.41071286794509876
aF0.15363900293776278
aF0.652074699505384
aF0.7307605859663102
aF0.7385952278356158
aF0.5556778402495077
aF0.39972455564894505
aF0.23254127513684764
aF0.6651737974122219
aF0.43901312498984
asg12
(F9.202851295471191
tp205
sa(dp206
g8
S'000-050'
p207
sg10
(lp208
F0.4298340173917159
aF0.2577109999262919
aF0.22826738179841055
aF0.10850597810365237
aF0.9903423886277753
aF0.5844836294855172
aF0.8382813584086767
aF0.6249879776509665
aF0.32964653057494486
aF0.8995193787696916
aF0.7604165594397103
aF0.9264237623493278
aF0.07042745368975689
aF0.6208516411709909
aF0.5096807154693194
aF0.26529190249131784
aF0.4380232560339852
aF0.49281039679755256
aF0.23288193695642445
aF0.03331437179010055
aF0.7601517084130037
aF0.6247496988261487
aF0.9308344988857457
aF0.6964297427012065
aF0.6855526752804216
aF0.3372196009163091
aF0.5930871348280241
aF0.06472045707265295
aF0.9504999334361129
aF0.8755650251302043
aF0.9039324622722028
aF0.34513507858787074
aF0.0025879216031079455
aF0.66133768996528
aF0.8660232757733934
aF0.3519085592381256
aF0.6423945430312433
aF0.014189861248441682
aF0.026725495922275022
aF0.8081969335174164
aF0.29542521878519157
aF0.7855709452305689
aF0.4311656004266704
aF0.160577730095126
aF0.2885682895728664
aF0.8899029276266031
aF0.9314734324856143
aF0.20807328355421606
aF0.7907272490542098
aF0.4311694004068629
aF0.31923596645423213
aF0.347345379230111
aF0.7778962485120694
aF0.5507158471266275
aF0.9759465397654319
aF0.4614435497277849
aF0.774922902559136
aF0.6724453230611313
aF0.8092542937235593
aF0.49828520571202317
asg12
(F7.378060340881348
tp209
sa(dp210
S'mutationProb'
p211
F0.2
sS'tournSize'
p212
I3
sS'timeElapsed'
p213
S'4:25:29.348273'
p214
sS'indivProb'
p215
F0.05
sS'genomeSize'
p216
I60
sS'finalPop'
p217
I50
sS'length'
p218
I200000
sS'cloneName'
p219
S'Random population'
p220
sS'cxProb'
p221
F0.5
sS'exp'
p222
S'initializeBraiten2_2_Full_GA'
p223
sS'type'
p224
S'random'
p225
sS'date'
p226
S'Fri, 01 May 2015 14:43:19'
p227
sS'finalIndivs'
p228
(lp229
(g9
(F4.597808361053467
tp230
(lp231
F0.3790985254337701
aF0.567098167179614
aF0.5955925126571219
aF0.4498588988554526
aF0.45701982539471864
aF0.3116509978753955
aF0.3133373611975704
aF0.29485946100158045
aF0.5307724612356264
aF0.3962220215994189
aF0.7187503721849594
aF0.5480919969498905
aF0.582075082707141
aF0.16765093779104812
aF0.029277197597395443
aF0.20874191791401042
aF0.022575436577678576
aF0.6346744421866868
aF0.2244417391997393
aF0.398309870301092
aF0.6195007984120342
aF0.0019484974344642358
aF0.03566996876236428
aF0.37678955251943136
aF0.21644443407337655
aF0.4048454828536602
aF0.8659941335573602
aF0.25572342020850636
aF0.6014348792249553
aF0.22690134085102698
aF0.20608794746311854
aF0.17591993612773082
aF0.8885993262120673
aF0.6715822963723029
aF0.37582036742565106
aF0.01798798449939376
aF0.3525379118118491
aF0.30602276252477023
aF0.42334245064614184
aF0.39410618841423173
aF0.569013590836327
aF0.5751778692306263
aF0.6232828041751413
aF0.24976651629104318
aF0.1309454633729532
aF0.24507316100625598
aF0.989330052745969
aF0.9569592935418557
aF0.7115764135230284
aF0.7676115740419204
aF0.08694693688587751
aF0.9028118459872476
aF0.5375014817017365
aF0.09894442813170345
aF0.8125945489088434
aF0.5300534116638986
aF0.6950708555045416
aF0.3318716477651059
aF0.965555162886077
aF0.2501179233661036
atp232
a(g15
(F10.688922882080078
tp233
(lp234
F0.24138247743851493
aF0.09696807065302482
aF0.6121772791607862
aF0.5178368630163431
aF0.46532550577296483
aF0.8442382076652287
aF0.43989497483172524
aF0.8437708587447599
aF0.06485964093513452
aF0.8439821316397432
aF0.32875701614259145
aF0.4320164574705886
aF0.2627444730005214
aF0.650690486330408
aF0.07826413945779476
aF0.10754077019629094
aF0.2855637965052924
aF0.045601941621106645
aF0.9608175421588783
aF0.01616414734422067
aF0.6035017741864835
aF0.6733061733547587
aF0.9417110326758313
aF0.7100432587709465
aF0.3255601902775359
aF0.10155763563414877
aF0.47239461396171567
aF0.3070009714400088
aF0.5572196197668691
aF0.330365111340602
aF0.32445528378267485
aF0.9794668643678344
aF0.7969030205434561
aF0.9886250822357301
aF0.07940994130836332
aF0.4588355578091533
aF0.8668238568425944
aF0.47915207492742673
aF0.807262960209622
aF0.023363770515924642
aF0.6023989538220866
aF0.07733242788163808
aF0.5442000525379087
aF0.049196525096247834
aF0.7399430301840194
aF0.5030198434529128
aF0.047073860316548255
aF0.022632746739208343
aF0.8264925631446832
aF0.3756554606230915
aF0.0071538258880377015
aF0.050402740750721375
aF0.8227646207266283
aF0.9685839284015374
aF0.5262875813469904
aF0.16117594469210828
aF0.47582667563157854
aF0.4876641861203469
aF0.15133760508293048
aF0.22485718445003233
atp235
a(g19
(F4.260958194732666
tp236
(lp237
F0.3037778899837317
aF0.2750310998003874
aF0.3965254897106665
aF0.7083110386181418
aF0.8321721417468573
aF0.6357336172086434
aF0.650965774553266
aF0.015229400104253221
aF0.3440471670401263
aF0.7272867476157536
aF0.6289003864128716
aF0.37786854513305934
aF0.06260925718039012
aF0.3375684730702272
aF0.16002545559720538
aF0.7226689495322585
aF0.17309313001185067
aF0.8422481647276834
aF0.7367702902739851
aF0.3326829434673577
aF0.1306820766709471
aF0.8653825058943665
aF0.8452925824887814
aF0.3749966095986257
aF0.5323085601027815
aF0.45751913539855926
aF0.10394850922899668
aF0.8717671133945293
aF0.6062894705162657
aF0.07387998101526994
aF0.642468152405068
aF0.723919371005717
aF0.36918650710963297
aF0.20203849631217208
aF0.009091032399944687
aF0.40200886914884015
aF0.12625945129931726
aF0.3635457183657944
aF0.7226961155679107
aF0.3255529680721686
aF0.5149358531982371
aF0.2760704204091047
aF0.25045343078556526
aF0.723312452272034
aF0.25392013145731596
aF0.3734759612527109
aF0.9076344047373237
aF0.2468034257921553
aF0.5126085489868577
aF0.7717663867108217
aF0.11701655448833437
aF0.6317882208027297
aF0.23151808613771352
aF0.24635874239802424
aF0.9323630404524863
aF0.38742538261055637
aF0.0862201318148802
aF0.003372697683293513
aF0.4037871821464716
aF0.9960554712854306
atp238
a(g23
(F1.9476503133773804
tp239
(lp240
F0.5977474715985369
aF0.7565852748646938
aF0.5731808163485852
aF0.12185690581350661
aF0.45052017630995866
aF0.3897067321909016
aF0.2205500638766389
aF0.9055837001727739
aF0.2807532119404682
aF0.14020529118107572
aF0.4929785051928999
aF0.4541022360616045
aF0.7219998572759238
aF0.681497324038476
aF0.4421304749502303
aF0.9798313610103699
aF0.0482719288247786
aF0.7662509070775629
aF0.987291198714648
aF0.25424336418090465
aF0.7142632915699777
aF0.12008320823158536
aF0.46155045224195335
aF0.5066705895061907
aF0.6188996973551385
aF0.37252789166562517
aF0.35804052106251516
aF0.45746173944738955
aF0.6236710136991517
aF0.7944189074761677
aF0.008704704271813468
aF0.14584120128227573
aF0.027495116200926595
aF0.6395353874183893
aF0.9900558986392969
aF0.6854707734883665
aF0.4463969824564541
aF0.17956778002175433
aF0.4426140401678391
aF0.023526007924642656
aF0.4299469510443795
aF0.05867173589188823
aF0.8624067312515243
aF0.24377059399488066
aF0.7690464622349673
aF0.7678754262816735
aF0.8483965734069914
aF0.9199154106868515
aF0.8232778535107556
aF0.09272385392844229
aF0.43216845195145737
aF0.0577165377033142
aF0.14245120360470886
aF0.438095880986032
aF0.14620447289775285
aF0.42672084133699806
aF0.7874908774611347
aF0.07513539561091631
aF0.4939473521869532
aF0.40255244010725433
atp241
a(g27
(F9.415352821350098
tp242
(lp243
F0.5103007282559362
aF0.2772400054821649
aF0.4349806972932321
aF0.42473602255428267
aF0.9610285994782564
aF0.8970355542250332
aF0.7271183670229919
aF0.23374979314153765
aF0.8744613441277278
aF0.558309278071308
aF0.6983082362218017
aF0.8776781624681985
aF0.233270005273011
aF0.7331233481010968
aF0.5249377113366492
aF0.7712895306386303
aF0.7186736516627631
aF0.251027298131858
aF0.6944635902221993
aF0.7718369295159025
aF0.27307650511996695
aF0.179884945209142
aF0.46893347928741624
aF0.27398920654364434
aF0.613787116547938
aF0.43162430733851564
aF0.002402573682349085
aF0.8396294056303821
aF0.7251189982682684
aF0.6678128371031636
aF0.1080822154550467
aF0.7730500868262571
aF0.17476919720769335
aF0.827201901182771
aF0.8891893630875474
aF0.02544462325195118
aF0.3874818140942703
aF0.08989381043127409
aF0.7937967015495366
aF0.9230304279750117
aF0.3795463639865222
aF0.75383291824816
aF0.03940691738994695
aF0.8596104495654882
aF0.3187615702588913
aF0.6575000911349201
aF0.7194649669192729
aF0.5768766730283932
aF0.47229582205383513
aF0.7352932890603828
aF0.5485662239017328
aF0.518724046135579
aF0.13857097808045682
aF0.48727333693723585
aF0.42642857175992166
aF0.25762836241596687
aF0.7124489238259815
aF0.47505989969624673
aF0.16302302744225294
aF0.5874708754446183
atp244
a(g31
(F4.251180648803711
tp245
(lp246
F0.32115846458700004
aF0.30715126971886164
aF0.06740513335982123
aF0.6208848129831568
aF0.8178271248847158
aF0.015216662699125139
aF0.5667215678997511
aF0.3771195581796972
aF0.3949396636277842
aF0.9645414548080862
aF0.6596277629645985
aF0.8029051236653953
aF0.02609492029391236
aF0.6832151248029579
aF0.5694530486300334
aF0.5565607801415638
aF0.5847078794152412
aF0.3801519888714211
aF0.8527053262102705
aF0.11527805929707513
aF0.7258646329806784
aF0.7040005620279094
aF0.14570269088858478
aF0.23790192656772147
aF0.964334059622282
aF0.8297177748548507
aF0.473853148303761
aF0.06946701274216094
aF0.5420998814706973
aF0.8141958007067829
aF0.11061151324402119
aF0.07118578685761423
aF0.7693046187790891
aF0.9745694047693448
aF0.07292707847339064
aF0.711945613262201
aF0.7881851041584018
aF0.8373331665930538
aF0.14980307697242046
aF0.7370682577263348
aF0.19429861981568397
aF0.030745145245507866
aF0.8992612943267099
aF0.03521225070360712
aF0.2742318449140446
aF0.2508634417030451
aF0.6361446998639699
aF0.22609084964989734
aF0.26622015372191843
aF0.6559894740448464
aF0.3495410944197409
aF0.23410473859754188
aF0.52515396307997
aF0.6774676676311349
aF0.37629835196741523
aF0.6308447759475739
aF0.041018316988591264
aF0.24169405772996932
aF0.5615540867795299
aF0.5207924495883094
atp247
a(g35
(F4.2636494636535645
tp248
(lp249
F0.2527700110829505
aF0.6584714274185296
aF0.2780663805435738
aF0.9240048755208677
aF0.7039464028668306
aF0.18142322185887316
aF0.6668940491822838
aF0.921163201394948
aF0.7806172804678976
aF0.006422824816963213
aF0.43541998126471404
aF0.19017037651406743
aF0.8928909212431031
aF0.3632188618460992
aF0.4371558836677616
aF0.4830240786669382
aF0.5973556310463264
aF0.4884002905455487
aF0.6444167018221286
aF0.271369529952617
aF0.5887438251108476
aF0.6738243624776952
aF0.5422214477929082
aF0.4054545659325832
aF0.0952658112601309
aF0.13493033269839017
aF0.41507991408234357
aF0.5788970882359721
aF0.8628180747970982
aF0.24306228056969714
aF0.45751698358241866
aF0.8702461793675089
aF0.5640672429517019
aF0.7023294021234315
aF0.4363780370483008
aF0.12318955538021303
aF0.5204682924915367
aF0.31250167745850643
aF0.3051808777281808
aF0.9867749821000896
aF0.9414616363469814
aF0.2795790208671689
aF0.9139118691033995
aF0.4653098681394957
aF0.1337305143460984
aF0.9220836896248115
aF0.10651941880782867
aF0.891199977234875
aF0.3430095787876175
aF0.14544359696441833
aF0.3181290706968295
aF0.18020892314908032
aF0.46224767192464455
aF0.17812677215754047
aF0.13216976304179684
aF0.22452803230686558
aF0.6343750001112188
aF0.05946127689921421
aF0.4059594412686047
aF0.4299141828434885
atp250
a(g39
(F4.507707118988037
tp251
(lp252
F0.3058353016778773
aF0.542034741602604
aF0.5585280245108698
aF0.9461963015241597
aF0.10849387247109332
aF0.7761419144435203
aF0.5388805510395732
aF0.6856393312473892
aF0.21327917883705472
aF0.8330350665405052
aF0.7712203576296596
aF0.8698650507842562
aF0.16397083380646915
aF0.6838209531059433
aF0.708527737092753
aF0.6149106630395439
aF0.5791131301249891
aF0.02784343414740098
aF0.7403875364841164
aF0.6577097904853916
aF0.8077524093637231
aF0.12661653167533793
aF0.6164366863235934
aF0.7545814382543705
aF0.8332318712350878
aF0.7056839565026564
aF0.7596610052965681
aF0.5565046724110673
aF0.16651269236285537
aF0.07451944379003805
aF0.4411160772728149
aF0.29820500050787213
aF0.2728892054823875
aF0.6002655904530635
aF0.2889449314067398
aF0.7367605203231965
aF0.03474741549738569
aF0.9605860683862785
aF0.8070660329036021
aF0.4678629377525527
aF0.5762432826899029
aF0.054318868434385825
aF0.5003414287512978
aF0.9241464269722173
aF0.20651519302582433
aF0.8971580615704432
aF0.8501714620437637
aF0.8234862435352026
aF0.00917126854433814
aF0.6002105525780808
aF0.5039730533999041
aF0.35709058781975955
aF0.42178257589251755
aF0.7753779587908198
aF0.2433311226297683
aF0.44419375301913266
aF0.6946018516064049
aF0.47525425556232503
aF0.7356184890147639
aF0.17610122164822628
atp253
a(g43
(F12.680557250976562
tp254
(lp255
F0.06352470929602771
aF0.5743610234003814
aF0.7624733286943516
aF0.32821901174977275
aF0.5130311100287621
aF0.174337059403603
aF0.8314886686660383
aF0.6277015948436445
aF0.9215750853913907
aF0.6886101409822257
aF0.07529109672026535
aF0.643508330100121
aF0.08253476430871443
aF0.0461249449408625
aF0.746605317353774
aF0.30383706910087604
aF0.5591212981294323
aF0.39111412104049836
aF0.9987652354995055
aF0.4675215543839064
aF0.9740085481079509
aF0.010322122916568977
aF0.034184559162591444
aF0.6059354367015514
aF0.35464972725526056
aF0.8367039303112589
aF0.21841680829197263
aF0.21248833432389946
aF0.09373496696850214
aF0.4981805636137725
aF0.7394156698043944
aF0.4826451551836459
aF0.03668923354329323
aF0.048557238611517284
aF0.682255845858135
aF0.6507116744503472
aF0.23578277942693482
aF0.305825552327161
aF0.6932266297400123
aF0.3878495705811579
aF0.5455879758095002
aF0.991766264956517
aF0.4478655379203016
aF0.6529237311804125
aF0.35872850740030526
aF0.30750523413041164
aF0.6055594143983801
aF0.4051350947405187
aF0.4639514196462262
aF0.8701724547941367
aF0.377057125452374
aF0.9301100427312842
aF0.8895745940233082
aF0.9204281600635704
aF0.991861613591039
aF0.5365950107336782
aF0.25134241856339
aF0.4435264254314033
aF0.05674659478035393
aF0.024530404727129418
atp256
a(g47
(F4.228349208831787
tp257
(lp258
F0.1497928410913265
aF0.5038236666694329
aF0.2557374990461998
aF0.058926941813779554
aF0.35465712451541476
aF0.22005022722287915
aF0.8679113017136846
aF0.09741699117162972
aF0.7555319338553963
aF0.6515681125906062
aF0.06480261396537579
aF0.490053835785613
aF0.7279319106839764
aF0.7874093360507507
aF0.8678195862165274
aF0.11085694309046334
aF0.4131368065565938
aF0.7172910083328335
aF0.34059980493500286
aF0.49288506724837666
aF0.7646328073371264
aF0.4832101626304436
aF0.8694138093553975
aF0.9778560948813415
aF0.29227867709256417
aF0.26186192475144676
aF0.3624683758704986
aF0.7395444137303858
aF0.40173143880344486
aF0.1563154225489961
aF0.7358718761929431
aF0.2422452124743848
aF0.8534170363326442
aF0.9603126579344519
aF0.9779542877672085
aF0.756199221825367
aF0.7822602455239818
aF0.8216160416060991
aF0.7717101889201333
aF0.7329678936141101
aF0.15978228020642748
aF0.3551138988572555
aF0.3473239091832244
aF0.20508661258950445
aF0.40140416164484116
aF0.26674280179454024
aF0.3890616544460922
aF0.10016852670170806
aF0.3185648224296329
aF0.49892372994117307
aF0.8742531343631249
aF0.4092406541864225
aF0.903192430060378
aF0.8611901250050894
aF0.1463213148529524
aF0.4047196804186649
aF0.7008969664174919
aF0.03917170425667171
aF0.1113538810666882
aF0.5338412934137382
atp259
a(g51
(F4.261634826660156
tp260
(lp261
F0.22800800083988015
aF0.04242502534900261
aF0.008034233991367379
aF0.5818225298511792
aF0.26442292622963903
aF0.5422902286208463
aF0.06489615138344329
aF0.8518604423703725
aF0.19406238805315557
aF0.8644093561515901
aF0.3173811278261488
aF0.2898630331004999
aF0.27976619538274416
aF0.5313440674284357
aF0.9504714022340348
aF0.23222540118580504
aF0.7521171140182856
aF0.894367913699984
aF0.00481534900011471
aF0.2442817614141638
aF0.6849005304683276
aF0.7281002991023747
aF0.547134150944333
aF0.6915057709094158
aF0.9173260444845022
aF0.45054201759961077
aF0.8923366740303927
aF0.11089476889031258
aF0.6798858866204599
aF0.7653402847269402
aF0.1439119456714012
aF0.5720388765963738
aF0.7765977952604675
aF0.45673467768485354
aF0.30256187280878055
aF0.2774849126215828
aF0.7250243209073831
aF0.06218437336138627
aF0.8650253692300843
aF0.6396146476010278
aF0.6518457533517548
aF0.8460025576248553
aF0.038175520621896
aF0.5861133974847633
aF0.6683852248308473
aF0.7353355420648255
aF0.13107086557714231
aF0.5487249148495791
aF0.6658816727821183
aF0.3445046582483968
aF0.012097930066906959
aF0.368849498033756
aF0.6914615850424908
aF0.15733976410312
aF0.8842902032161152
aF0.8766328614060129
aF0.31160458117411083
aF0.7301268877230599
aF0.21272491215870604
aF0.7134233658491905
atp262
a(g55
(F5.123625755310059
tp263
(lp264
F0.09492338878944373
aF0.4345772004207067
aF0.27122415883020956
aF0.09229008083174195
aF0.33995830970210594
aF0.5721906500722429
aF0.3511067493228047
aF0.6509239885960971
aF0.544991678514162
aF0.42817688033689727
aF0.003311608895722906
aF0.0013731729877423104
aF0.04617021374280783
aF0.3344004211359771
aF0.2853867415188168
aF0.7073611029498671
aF0.0038817007837623763
aF0.12998512786710992
aF0.7730933885192107
aF0.4440699130585216
aF0.6592597182584303
aF0.23361498731402375
aF0.23952522422852618
aF0.9669970443742493
aF0.6339615234401424
aF0.7565321266326525
aF0.91107688178239
aF0.5498625752509245
aF0.14354639054881957
aF0.5619141254344711
aF0.265342164550751
aF0.8388175118700822
aF0.9833903769482164
aF0.6738865808786272
aF0.6512650328409254
aF0.48294223798710256
aF0.1387200612693189
aF0.835554709948788
aF0.7616316635809282
aF0.8761737970962242
aF0.8073516959290817
aF0.6500170828702859
aF0.545937736597017
aF0.0903070476678971
aF0.8384340490931849
aF0.4027936354380143
aF0.9040846305130404
aF0.6706760952081714
aF0.10916150320625617
aF0.44045909514999704
aF0.8820290337054798
aF0.10454982916998412
aF0.5144085699395398
aF0.3623494602223487
aF0.943016125320638
aF0.1405757234995073
aF0.8827854199804135
aF0.4149947801136974
aF0.44651136389485213
aF0.35640626182119006
atp265
a(g59
(F7.678386688232422
tp266
(lp267
F0.5221872524946158
aF0.7290719087372417
aF0.7878055705945468
aF0.5301812274510624
aF0.4739270707728225
aF0.46233085171514476
aF0.0029816391631791728
aF0.6240909863216828
aF0.849112635253263
aF0.379354263645046
aF0.17424989615914543
aF0.6694858664799983
aF0.9296317110885102
aF0.2819824489402346
aF0.47936882866721764
aF0.3393273705172126
aF0.8611447778169536
aF0.028298755583531454
aF0.6876294857864047
aF0.9658341068925691
aF0.4014978002887444
aF0.18447863236123485
aF0.34550414641025595
aF0.8032063397841189
aF0.41561169493385
aF0.520056726647408
aF0.43088045515182294
aF0.6584277390063259
aF0.6945179374818091
aF0.21365576565438593
aF0.6276441024440254
aF0.593483957771654
aF0.7713932237783439
aF0.37553219239750535
aF0.2623183182649985
aF0.6156255454492836
aF0.7462384035003417
aF0.4259157522901653
aF0.4767860997307688
aF0.9473547372044782
aF0.6705780498848317
aF0.35915267779058935
aF0.9964128513082645
aF0.7846459707915264
aF0.15494325398174147
aF0.056678294511329996
aF0.5889633858826133
aF0.16710447984651045
aF0.2101987838471645
aF0.04651703441248922
aF0.18920544381062032
aF0.21131801311770537
aF0.4024546571291848
aF0.08275583718433888
aF0.43369872026830725
aF0.350016013635287
aF0.42977507875321297
aF0.15573137910960588
aF0.5257304033190446
aF0.8206720394934468
atp268
a(g63
(F2.8562915325164795
tp269
(lp270
F0.6343455150539118
aF0.08595655323592
aF0.9147245020134724
aF0.4191275663317148
aF0.9605576402189647
aF0.6191879097318609
aF0.0051074549196722385
aF0.04398614700482151
aF0.4315136875091944
aF0.02137750913511416
aF0.2781886795412132
aF0.14224386532995648
aF0.2657304210731737
aF0.24269669359707513
aF0.3600923022187099
aF0.9373284201625616
aF0.8533281554592619
aF0.3064599033759874
aF0.12908296866898905
aF0.8413429259128087
aF0.3096371515372175
aF0.6618273189040453
aF0.6294721895068692
aF0.6311620990955914
aF0.06022130351059474
aF0.6944992188457483
aF0.8914114281624808
aF0.6989416016954564
aF0.9038258443890377
aF0.4099931916830303
aF0.14681802646464226
aF0.25002287756824615
aF0.4914022393561672
aF0.48036429493834343
aF0.45169332285883645
aF0.842574097858232
aF0.04598407925003645
aF0.5119338625810689
aF0.6072133406858257
aF0.5286025069455741
aF0.06511365149670889
aF0.8679229202047375
aF0.4063290126830873
aF0.8106516227766005
aF0.671457827337554
aF0.10345004097696053
aF0.7586075476916867
aF0.5768783327288419
aF0.8032152370294936
aF0.20178106900547044
aF0.2319327811104559
aF0.9107013867567288
aF0.48623220568683656
aF0.7852586944268758
aF0.2975171277143893
aF0.9799623289275312
aF0.8132178937473054
aF0.967399715453908
aF0.009616159076302755
aF0.6575769259556614
atp271
a(g67
(F4.664837837219238
tp272
(lp273
F0.40094076303381354
aF0.6746797383623051
aF0.14508796105068222
aF0.2132618102086028
aF0.5209213288140047
aF0.06591779753233928
aF0.17657609115225437
aF0.0025864591203635934
aF0.815281687830831
aF0.3760783873229333
aF0.882091275509259
aF0.9158016241001954
aF0.8029120182126762
aF0.9066826350360899
aF0.7611478232109232
aF0.005939688578670332
aF0.2912432313021871
aF0.01665941224415446
aF0.054175573902974894
aF0.4606544481319541
aF0.413025252440511
aF0.6879595012794765
aF0.13711062528774698
aF0.2598656199769931
aF0.5736534495945803
aF0.6691609593380199
aF0.6359144223970253
aF0.5918255498649369
aF0.7892091323851641
aF0.2831768996849211
aF0.6546523268847292
aF0.38432316233168184
aF0.6682424659697616
aF0.3473834641035637
aF0.6841896669470536
aF0.10454859940220995
aF0.6718931855482232
aF0.5276741791282544
aF0.39286259540703483
aF0.2552513177625546
aF0.993283872432593
aF0.930851999754556
aF0.8572368102016746
aF0.5410981444495748
aF0.9390820927236692
aF0.5472652143306608
aF0.2657478700671192
aF0.8919805716430704
aF0.4114152148287804
aF0.0768811670577002
aF0.3232917184577475
aF0.424427502782045
aF0.0025042527053137364
aF0.16612958034505365
aF0.060793674591886115
aF0.5181186969617764
aF0.5826956528631777
aF0.04342506611812158
aF0.12640137268212526
aF0.7353538804226162
atp274
a(g71
(F1.4031352996826172
tp275
(lp276
F0.5563043446369593
aF0.4003259154950495
aF0.8125183552427763
aF0.3441782075430906
aF0.32298917313359576
aF0.3626924961329022
aF0.8272432019143308
aF0.07807304426277129
aF0.2558599818149071
aF0.5937471725502246
aF0.2799638694834963
aF0.3128193757868817
aF0.014037161892960892
aF0.9738957033219102
aF0.960401263192215
aF0.5175940097232764
aF0.6130247871461992
aF0.55031973171197
aF0.14834593664811957
aF0.3264518929596971
aF0.850390674443398
aF0.22457529553259037
aF0.3032507257946243
aF0.3051246169101812
aF0.7459666206944517
aF0.791718337513245
aF0.4261830514253684
aF0.6816806254090357
aF0.9759185294070025
aF0.9018095695270643
aF0.813965276836857
aF0.21378504389851638
aF0.7545299269433638
aF0.38780473839629515
aF0.7913990854405195
aF0.4115426098499507
aF0.9869614736260612
aF0.24401836885279682
aF0.6060656648666356
aF0.7233174081266959
aF0.3523636183956146
aF0.2597863175128817
aF0.47518773167403006
aF0.6785193667816403
aF0.4942870313158747
aF0.8062452240361818
aF0.9002280723360959
aF0.5988036127039212
aF0.32696929622422644
aF0.7992547436374243
aF0.24864948165168022
aF0.8994507252929885
aF0.40517916349957395
aF0.6610955891183908
aF0.24512658450103664
aF0.74557780028629
aF0.5035424882785511
aF0.9968310561285849
aF0.2240835384841593
aF0.6251463102489255
atp277
a(g75
(F3.6367483139038086
tp278
(lp279
F0.12508568600336822
aF0.9505248343945472
aF0.60349196927621
aF0.16768257863888147
aF0.3023626817185773
aF0.7900515018497498
aF0.25989098557451984
aF0.35581268883436445
aF0.41103445733580146
aF0.20149462100340543
aF0.07943826174411417
aF0.9926794745656426
aF0.9632116331446829
aF0.09733597262413385
aF0.0670132900011583
aF0.21164335831380587
aF0.8690778074162736
aF0.36722502610353935
aF0.017490357796884126
aF0.6826331908167372
aF0.25376141845711064
aF0.37565294782158276
aF0.39908059323858047
aF0.10948846257850264
aF0.3292147445310003
aF0.4592397036914252
aF0.08739583675260953
aF0.8253201254146663
aF0.8806250203165372
aF0.6134082879245819
aF0.4816425075367873
aF0.798584506179381
aF0.24414828597497074
aF0.6483531786808822
aF0.2795386346091002
aF0.05232421290419287
aF0.17834342242603973
aF0.475189280502496
aF0.3780933582910825
aF0.775401642275136
aF0.5179630058286562
aF0.8359422013927561
aF0.11368907531934225
aF0.18039000018470108
aF0.44006541066868177
aF0.29072874802001214
aF0.054458753801735704
aF0.7798985184780657
aF0.49190295472386436
aF0.08363213414298154
aF0.778121595251353
aF0.05991148040624328
aF0.18346747646797834
aF0.20930536380478593
aF0.8507201253578934
aF0.7047186577120808
aF0.33752064190077846
aF0.37139675292423513
aF0.08947379101536124
aF0.9792642376491162
atp280
a(g79
(F4.116036891937256
tp281
(lp282
F0.06167282574429167
aF0.7069625641938662
aF0.4022215907932075
aF0.8599894342236177
aF0.5903438369584059
aF0.9666359178608763
aF0.7422879181167318
aF0.03980154488347776
aF0.8626927323924531
aF0.40287070975068917
aF0.3194893059532625
aF0.5134479295500707
aF0.5750361594698892
aF0.20928668829754926
aF0.6482621956258052
aF0.9097296827870563
aF0.7658890827050804
aF0.8146598784861208
aF0.8948614684915044
aF0.05515388914432395
aF0.2431084584559159
aF0.7077699489797917
aF0.568585691680299
aF0.3828062006385099
aF0.7264359806044597
aF0.2469460890690649
aF0.3466629718863573
aF0.41011926509132113
aF0.7997616726719449
aF0.4937235116874139
aF0.23771574477068758
aF0.23428520454235147
aF0.3384021133025812
aF0.952609494045109
aF0.06096972657300004
aF0.9263981798608566
aF0.661192164311859
aF0.3614106762647823
aF0.09362404359985543
aF0.918395924250598
aF0.7054599791307088
aF0.766706990444045
aF0.5209068932628951
aF0.1416170634745163
aF0.20550688462025934
aF0.7161020307766847
aF0.022506968502945424
aF0.18689541585859615
aF0.939428581640509
aF0.7465380825297225
aF0.4524359603599194
aF0.9228121647271096
aF0.4908464651538279
aF0.14150134113137713
aF0.44005637381567275
aF0.02282225102931834
aF0.7348384300124502
aF0.6837832609341262
aF0.28015218639291195
aF0.5038598297487051
atp283
a(g83
(F12.66304874420166
tp284
(lp285
F0.1818594832186634
aF0.48161027467934814
aF0.330442849726704
aF0.3642579514877414
aF0.809937326705606
aF0.708534352709361
aF0.6143709460171203
aF0.06059738589568575
aF0.99932267573002
aF0.584952960741782
aF0.2682105391214381
aF0.5808782748523239
aF0.9733503297993982
aF0.421274772835984
aF0.09959157706014887
aF0.4052862212420958
aF0.7720699570258085
aF0.8582151204579992
aF0.17100769965934837
aF0.34078282687506245
aF0.9764016898998993
aF0.8532946694299675
aF0.42576249703823943
aF0.5949357081929139
aF0.8453137104868258
aF0.23687641889689126
aF0.2964461691479068
aF0.14501943856952482
aF0.9477704262769598
aF0.44978249768487233
aF0.12998301531056822
aF0.24582468617160902
aF0.9646855613013876
aF0.07283437107942048
aF0.8708794802883322
aF0.04476406053490656
aF0.3146609441661249
aF0.38312619228444345
aF0.7131614279076056
aF0.35971757022840956
aF0.8878875152809164
aF0.8905264223429541
aF0.4560176941161118
aF0.08717847834558967
aF0.049247259663572795
aF0.6531253918379136
aF0.8629122989487586
aF0.14939260813160227
aF0.5066281317185326
aF0.35264341605903604
aF0.1385713599101288
aF0.5886085558334921
aF0.9274023033002069
aF0.49763610781237166
aF0.523060449557871
aF0.7302729792460071
aF0.1491798560063149
aF0.6138995589538109
aF0.17375079939785465
aF0.2539137008513409
atp286
a(g87
(F0.09938576072454453
tp287
(lp288
F0.7499590738112039
aF0.7333956277620263
aF0.8618586893846968
aF0.26410131732537745
aF0.9133874776295968
aF0.4271797597878568
aF0.7618244261206015
aF0.9299317817416056
aF0.9488233299203911
aF0.9864426831297266
aF0.35324214778267593
aF0.7811404678509167
aF0.6508590013931508
aF0.21878681434347758
aF0.19049958598231265
aF0.20790343034621395
aF0.9821920414159595
aF0.38226708295329737
aF0.25475773052749195
aF0.20853934089986648
aF0.7113417911867693
aF0.5501951361819468
aF0.543331793952348
aF0.7288802617902465
aF0.07866299597402482
aF0.19522333568199735
aF0.4204103833038748
aF0.13536433468732245
aF0.9713735551884862
aF0.8845719217987446
aF0.1591648675509868
aF0.5542300703045753
aF0.42086255830855457
aF0.9199398707417056
aF0.5374638793567514
aF0.9853288448896548
aF0.0674691013390073
aF0.3448625098745799
aF0.43065338350499327
aF0.16784842867001093
aF0.5483677838706474
aF0.13178472722231338
aF0.02679285134632059
aF0.48514843115356887
aF0.10307882551748548
aF0.7492834355935499
aF0.22904989356350403
aF0.44244994135760873
aF0.3137342131591817
aF0.9420434568819893
aF0.8108710305376252
aF0.30262773490068673
aF0.6393516869983535
aF0.48119690314013375
aF0.5963527377940153
aF0.8118404231892491
aF0.2859796928257392
aF0.8041305105800827
aF0.7272552232713838
aF0.3598654192364298
atp289
a(g91
(F10.059380531311035
tp290
(lp291
F0.03141959557504359
aF0.8490580784486892
aF0.7743083560350378
aF0.1811532076798793
aF0.6016980423725753
aF0.8086512581493297
aF0.5900366172139833
aF0.34608862483405267
aF0.31246721120812804
aF0.02192470282889092
aF0.9597999875538473
aF0.01421982706192726
aF0.18002147900892096
aF0.15068090945981882
aF0.6596881787027579
aF0.33862114637340734
aF0.21272833506307676
aF0.46838328800594864
aF0.016399780750051107
aF0.12387323107269654
aF0.6652556699196249
aF0.05597943949314188
aF0.013141205687311364
aF0.7303149836828458
aF0.31326857419344
aF0.9760741351186638
aF0.1790828655158937
aF0.5110389910791358
aF0.32237275686733724
aF0.6552900514211124
aF0.0697972959918377
aF0.39438599410733044
aF0.05618679755918432
aF0.7986960850986682
aF0.6762525919289166
aF0.3284750064651214
aF0.4260403970656481
aF0.4856228317835777
aF0.5042367850532413
aF0.813555342007515
aF0.9944176199773099
aF0.315339705836562
aF0.31974087994484257
aF0.12918771162030918
aF0.7393837898597692
aF0.808919524316474
aF0.39093537009250845
aF0.3596749292389976
aF0.21309559602813943
aF0.3123038814293406
aF0.2344635566897726
aF0.9946595893941697
aF0.49143007760372637
aF0.6476485427412844
aF0.5674411584626017
aF0.3676611287848477
aF0.6114669891269751
aF0.834520309956589
aF0.7087419242310994
aF0.5315670199566698
atp292
a(g95
(F12.782272338867188
tp293
(lp294
F0.6423556314669149
aF0.4747305330386019
aF0.22731198856073476
aF0.9974916226048669
aF0.3867342917373291
aF0.8996859727707249
aF0.40912198110875364
aF0.9397009277808979
aF0.6977812529196187
aF0.738379225295191
aF0.40503730187079934
aF0.5296923619096887
aF0.7729630935449294
aF0.10591143592421948
aF0.27551634451755613
aF0.9593315824335703
aF0.2973502173502647
aF0.8415741357250666
aF0.4756712395367556
aF0.2918017892659004
aF0.5689331744497962
aF0.947571641546866
aF0.021700347399414954
aF0.09079633581022106
aF0.9430363198164926
aF0.6667013575652639
aF0.6884827977259594
aF0.7034716928358796
aF0.4881342664630729
aF0.3043415648529241
aF0.04314315258229173
aF0.6841969519805184
aF0.3297479216254563
aF0.736312659953026
aF0.806590108916223
aF0.6783044216661057
aF0.4290221085680286
aF0.9142020096111061
aF0.028240027759599107
aF0.9694659641009332
aF0.8499853696804717
aF0.745536684611421
aF0.807059510028632
aF0.40616930131157913
aF0.016743506494548144
aF0.849466267439327
aF0.6915579766856116
aF0.42624712570328105
aF0.5896376642730645
aF0.3050684231582288
aF0.9504862948723175
aF0.7186257503780088
aF0.9503618107168496
aF0.8283902957687278
aF0.41176891121019377
aF0.07559531019032906
aF0.09793005803371635
aF0.3835636092081989
aF0.7008421087409349
aF0.40653670935679564
atp295
a(g99
(F5.623565196990967
tp296
(lp297
F0.6422725004328714
aF0.6776186489923927
aF0.5386207571116194
aF0.04928099263865715
aF0.48682321122446837
aF0.7639871960504885
aF0.5047980640809764
aF0.35288961882829883
aF0.7698914194192885
aF0.4456721848402385
aF0.3179066468503535
aF0.5911445024839389
aF0.3606002083949378
aF0.6338216099413336
aF0.5765644559597677
aF0.7900289606936974
aF0.5349451381289835
aF0.8053175240283265
aF0.3771229839454202
aF0.46544011365420423
aF0.09156073687146582
aF0.6641127617587325
aF0.895218302116344
aF0.4183011870824912
aF0.13931455836170015
aF0.9781954526732035
aF0.6950212229815997
aF0.24722885268342565
aF0.2488361121142827
aF0.9607153624139481
aF0.2267229062780195
aF0.5675522954042549
aF0.9910873595302848
aF0.24397372268988948
aF0.4778907227556849
aF0.4159063605772947
aF0.4297236954433188
aF0.4125373066928737
aF0.09044978764168354
aF0.8401655566796877
aF0.2965766820441099
aF0.5366876140934314
aF0.3018825887987009
aF0.5201630185862528
aF0.49975676394824997
aF0.36607843062076484
aF0.10838808563947366
aF0.7329427222786575
aF0.18005948833709162
aF0.9294858476446866
aF0.5772625080521907
aF0.2615022625876653
aF0.34820073347302716
aF0.5745487793104399
aF0.7981367699730847
aF0.5418783178096354
aF0.4039854793744805
aF0.7152579216560794
aF0.38165408447634674
aF0.7240124153212155
atp298
a(g103
(F10.027533531188965
tp299
(lp300
F0.8310651161829242
aF0.6013035638238483
aF0.3312039551462923
aF0.753222438081209
aF0.5218529366023771
aF0.4477634645953925
aF0.25645824843993414
aF0.8214903902297854
aF0.35388785303519277
aF0.3361053082724983
aF0.7636257276512103
aF0.5223784722407704
aF0.8427493153056496
aF0.7126100297339528
aF0.3615113193047138
aF0.8089862442080995
aF0.8561304808910338
aF0.5602579186617995
aF0.5993340308717034
aF0.16019613399032373
aF0.2972988354964273
aF0.9601656563972424
aF0.2990925124215852
aF0.7295125181532255
aF0.7797172115893148
aF0.9343254660187382
aF0.01363347283186822
aF0.4498361935105606
aF0.13117062854057993
aF0.05198090042625836
aF0.6062045552099432
aF0.8660635627415079
aF0.7312923817337376
aF0.4229321245465111
aF0.8712810464548343
aF0.799924919042881
aF0.31821689287449617
aF0.7880001916413724
aF0.9180986131624594
aF0.318956223793295
aF0.4864536007674849
aF0.8039800415131795
aF0.17862622154403163
aF0.7692315889410821
aF0.5953721384938542
aF0.8966738530205034
aF0.4817971259145276
aF0.17887752813746005
aF0.4091962867598058
aF0.2406935923009007
aF0.6559152967063033
aF0.14016022774696923
aF0.5835502940595775
aF0.16421400332248726
aF0.8283306578149802
aF0.940350195751614
aF0.4374482008574865
aF0.29390511281188836
aF0.8113042198388464
aF0.6276473286365207
atp301
a(g107
(F4.243997573852539
tp302
(lp303
F0.5262599473600911
aF0.5272222127292373
aF0.8689323932516462
aF0.979215960829809
aF0.5044482297832666
aF0.27807389018556583
aF0.12192272618676181
aF0.4154429217228781
aF0.7760952557266513
aF0.7945068412374071
aF0.26138405596131686
aF0.4480656058222352
aF0.7896770223328645
aF0.41616819372813507
aF0.8050969375691777
aF0.16524804795941328
aF0.5496238858573739
aF0.2605085832193105
aF0.2724660633935425
aF0.3788124973163657
aF0.06917195833688361
aF0.16683702592468586
aF0.3761640903697432
aF0.6297425507315498
aF0.09445935024170327
aF0.2735104831990316
aF0.8997674799251288
aF0.7253718942797914
aF0.8187075910467901
aF0.7624381074561016
aF0.7378839316222249
aF0.6562856135410582
aF0.3352818059253845
aF0.9380549944123331
aF0.07465097403576149
aF0.2106788013774329
aF0.031909646110259926
aF0.6202895927409249
aF0.7546741663429755
aF0.043655339249313085
aF0.5207244481266049
aF0.6741004834349855
aF0.0032473399611532283
aF0.45023647289174906
aF0.7108463490138612
aF0.058479365932088356
aF0.42623302417969866
aF0.6307759761299636
aF0.8320553783781708
aF0.8517493742154656
aF0.9514148419139671
aF0.8276991478498444
aF0.22756865022719452
aF0.24285465113376703
aF0.6261247766532114
aF0.9727931487775775
aF0.01073245536886025
aF0.40810524860319763
aF0.2507579433911865
aF0.556751057092612
atp304
a(g111
(F12.374832153320312
tp305
(lp306
F0.5351261136192722
aF0.752371892636412
aF0.6813927131742326
aF0.15842931464237475
aF0.5743771857496962
aF0.6578981185714214
aF0.5822445853203421
aF0.35228130432183813
aF0.48168189199159095
aF0.9414996150066762
aF0.5482168610577577
aF0.715720105588297
aF0.7915834364098888
aF0.5974951965630674
aF0.951689155344731
aF0.46833162960833774
aF0.27936606183336565
aF0.2064055053041558
aF0.1050638754120432
aF0.2780136737844374
aF0.8635372731964585
aF0.32464119478036724
aF0.9280795908953099
aF0.41877052576431884
aF0.9380348923086173
aF0.9336680843800784
aF0.7181238545313012
aF0.37484449272870524
aF0.40304314188699353
aF0.19983812826743064
aF0.5223685115540155
aF0.3748632928623773
aF0.5129160833764971
aF0.01424614432872684
aF0.08117673166017836
aF0.6371727343732001
aF0.6626220522607217
aF0.628444523337109
aF0.49773748979129917
aF0.4271169459450682
aF0.9976163658257263
aF0.27355577793470653
aF0.11925796045885484
aF0.7774287988498241
aF0.0771801714704019
aF0.11463902157708261
aF0.6775215994271039
aF0.9230280847068716
aF0.4974828850513643
aF0.70667745128047
aF0.5672485827730338
aF0.2051370898279501
aF0.9562081172089902
aF0.031282341504256905
aF0.914276115376754
aF0.5963624244149703
aF0.9237588293073354
aF0.4282016464459687
aF0.02394730970025538
aF0.9165165036950491
atp307
a(g115
(F4.531727313995361
tp308
(lp309
F0.024245093692136788
aF0.2955412315857504
aF0.12256925870831892
aF0.1791112517212582
aF0.5897344959478704
aF0.7087515339096085
aF0.7639763397081438
aF0.6862911121985977
aF0.08673062575032686
aF0.9917039188906911
aF0.5108090401243918
aF0.8567143392340558
aF0.41720646717146637
aF0.5912360460936185
aF0.4764696638973537
aF0.7188478812190684
aF0.6382918725334736
aF0.11228824489115485
aF0.47775155814535164
aF0.917952979527411
aF0.8478680374626998
aF0.5352592778980613
aF0.5198338612645952
aF0.439017300793221
aF0.1536126648325784
aF0.651428971997684
aF0.6196078126464616
aF0.8107252416803391
aF0.27613576136306295
aF0.4155867028134351
aF0.42752429213443466
aF0.2107265102518434
aF0.7364528501290165
aF0.5364065490152927
aF0.5163028926633555
aF0.8726556973806818
aF0.7440165304284396
aF0.22064920496485307
aF0.33954642787892686
aF0.4077505390649726
aF0.6061432888755589
aF0.6933701808885215
aF0.2708809117204244
aF0.4861286895007588
aF0.19647142112409421
aF0.1868290421235843
aF0.4123764119581147
aF0.41433393122460627
aF0.809328149679177
aF0.0039470562322758695
aF0.4357846750849069
aF0.9043860984191961
aF0.5458159066520591
aF0.1852469686673882
aF0.6964757846838698
aF0.6081044533306832
aF0.12638743064884517
aF0.05471765698246833
aF0.3029271757920743
aF0.7869576502999258
atp310
a(g119
(F4.235264301300049
tp311
(lp312
F0.32362259696275986
aF0.9604621285443942
aF0.6874404832117583
aF0.30226133183852777
aF0.3303592388490031
aF0.2610125919543078
aF0.8883088824230361
aF0.11835580612291563
aF0.17898188040268692
aF0.12385674063353658
aF0.22725259388058083
aF0.4424692441008099
aF0.511715666911152
aF0.4845175456881139
aF0.10247776671966768
aF0.3007590050194807
aF0.9114675882052382
aF0.569854986495311
aF0.8623939730374481
aF0.3441693216681678
aF0.3207696499889712
aF0.5203694958348908
aF0.33318810206810157
aF0.3609097005138504
aF0.05392904985606395
aF0.3277551652527816
aF0.8204403089893169
aF0.9423314667582264
aF0.6071686080151444
aF0.7807258286142552
aF0.8984887018463951
aF0.3696961129260885
aF0.09933779125068065
aF0.4043167832799097
aF0.38603969410446926
aF0.8315010935182975
aF0.24661174785788198
aF0.8659118888485725
aF0.431684187036805
aF0.4832063976400788
aF0.5485825511389943
aF0.7073221926487918
aF0.5697054786153188
aF0.08382076766807323
aF0.4824837561809222
aF0.861226341103932
aF0.052756877267755575
aF0.2880383947116595
aF0.49509198532344467
aF0.1780445789570727
aF0.020114333833589404
aF0.5811161988015024
aF0.6297844971052357
aF0.8294841926211609
aF0.15558828114899548
aF0.8815549158294632
aF0.33264021102413777
aF0.6043597078842838
aF0.39912721686729224
aF0.5171721082041852
atp313
a(g123
(F4.947485446929932
tp314
(lp315
F0.9563806103989049
aF0.7055725677421554
aF0.14950709934507567
aF0.3871778682310455
aF0.4662939894478113
aF0.060422671099218284
aF0.44253188172161084
aF0.7072407926588367
aF0.08190293953047245
aF0.4620667304168794
aF0.12099359274788968
aF0.8184446132272502
aF0.8778058324091772
aF0.14276380562941093
aF0.14580206919376915
aF0.005515217674226358
aF0.5833694515510046
aF0.5904816830102309
aF0.0435914676630631
aF0.3848001238962354
aF0.7989053659702212
aF0.7951229271780923
aF0.7067685555018787
aF0.21201519107954314
aF0.7831409961253812
aF0.7010184179973794
aF0.8731055312210461
aF0.9212256006376531
aF0.9555114767754972
aF0.6070783254162854
aF0.5919083805658188
aF0.7599128938801601
aF0.7977865624464323
aF0.9920714182551879
aF0.7742197711506509
aF0.7801095235122326
aF0.3582291893075452
aF0.9993363867663495
aF0.7448195793418543
aF0.5391928100360712
aF0.738336801833709
aF0.04063546287876685
aF0.6783578398688428
aF0.13540307796954543
aF0.3971425221781477
aF0.8124230375993728
aF0.48451974759169136
aF0.620854433858289
aF0.9516795466962369
aF0.29952789723537376
aF0.2230643126185774
aF0.15427806793177312
aF0.16293877695050496
aF0.05771190196222886
aF0.5723406890080727
aF0.9148039759369427
aF0.9193728109116495
aF0.010852215311043079
aF0.2403480247951928
aF0.6976825721082217
atp316
a(g127
(F6.10604190826416
tp317
(lp318
F0.2819550048461471
aF0.5582699809506707
aF0.28038943712022635
aF0.614368561167338
aF0.8307097884235166
aF0.4838219420919423
aF0.6712612951064212
aF0.37238958574586434
aF0.7397276306193726
aF0.15205886557092851
aF0.8249558969990217
aF0.8932846867602452
aF0.3939714344055474
aF0.12102959459587825
aF0.12811374246765406
aF0.7877868019160997
aF0.761543127638076
aF0.32508567771679064
aF0.23255652724247455
aF0.9672440685985312
aF0.2221620783151389
aF0.4853633688254245
aF0.471883988821311
aF0.5839855115780006
aF0.9504943670501871
aF0.3018118997481818
aF0.44012960791334543
aF0.9812421698638897
aF0.593972644103244
aF0.7517927590707802
aF0.9061941302777327
aF0.47075389059094797
aF0.828440787569122
aF0.1141691096280586
aF0.806281757921214
aF0.3212647970913093
aF0.4758022382360112
aF0.029524154832461513
aF0.7634421083047814
aF0.8605303555075466
aF0.5200560136338123
aF0.5310114211806689
aF0.9985060352948878
aF0.32562729542716196
aF0.850538133767775
aF0.7130393503434775
aF0.6993516538372596
aF0.9112364497447765
aF0.2614185783009565
aF0.021635764944843427
aF0.20403555211469793
aF0.8316751739897938
aF0.8184040375655892
aF0.1678628411055515
aF0.4735928170308349
aF0.025899020003800066
aF0.34555327262498625
aF0.417795055751781
aF0.42161380371755985
aF0.3354069284555925
atp319
a(g131
(F4.065248966217041
tp320
(lp321
F0.08150307410663737
aF0.5647752999038442
aF0.08548923723144419
aF0.7702025745898383
aF0.10653340200044192
aF0.7197403742569393
aF0.5358357958427019
aF0.8861424640581119
aF0.5068788574530803
aF0.5792482681789232
aF0.9807054906040961
aF0.9834703828901156
aF0.11384264245786935
aF0.15206816195877182
aF0.07859562204401715
aF0.45286478616151227
aF0.05111030961046659
aF0.9755439657043113
aF0.44511051842529703
aF0.5470061845529052
aF0.5020428252353517
aF0.6060711779645068
aF0.6410650700829247
aF0.44875332961943093
aF0.7736457955286885
aF0.056431496981957485
aF0.5359365570742145
aF0.24861100491417343
aF0.7234271260264037
aF0.20395413336918122
aF0.10787522546372463
aF0.03941040524855288
aF0.4290615777309629
aF0.5439858553373775
aF0.7836393427677372
aF0.7314685033179879
aF0.7373894186668255
aF0.7109901429887039
aF0.9325546548226115
aF0.6453487341273756
aF0.6087734752649655
aF0.0970075789895598
aF0.29501371650123864
aF0.4542452962043413
aF0.5227950374184053
aF0.7188204731300568
aF0.3741087301217193
aF0.9456597535161724
aF0.9274320370409184
aF0.21725704230549203
aF0.3663708650018599
aF0.8371737703052198
aF0.40287387921181594
aF0.9896047407170907
aF0.9857470410509618
aF0.8532970041879198
aF1.1619375544946742e-05
aF0.5826637990339649
aF0.9706443121600733
aF0.8611290847668832
atp322
a(g135
(F4.217722415924072
tp323
(lp324
F0.8833131989921318
aF0.46919397075225666
aF0.2865842700287541
aF0.5779799440077517
aF0.5767764358483444
aF0.7669323596399096
aF0.8043183297828337
aF0.012221806636688037
aF0.45840137361383215
aF0.6656173110827891
aF0.04207581108255165
aF0.25108487315043726
aF0.8695824792390879
aF0.27000694015028426
aF0.3311086308303054
aF0.754400406628062
aF0.9070608485098666
aF0.21735869446372968
aF0.46826091222810173
aF0.9712839731435885
aF0.7598408404775371
aF0.6800660230486726
aF0.7181810692757267
aF0.7603808514228272
aF0.9416405447311315
aF0.7077101740443891
aF0.3513010269710827
aF0.8150471582502903
aF0.952192385761379
aF0.8715702481246915
aF0.4415752759999527
aF0.03502499747439036
aF0.8924577876480013
aF0.16677185776475167
aF0.9872575350114146
aF0.5074084389466305
aF0.16552368909995585
aF0.7869046000677214
aF0.5446127755003496
aF0.2832280334417995
aF0.10996833798120553
aF0.12942128386218066
aF0.7691709646728028
aF0.4876799386502165
aF0.4702566063503263
aF0.9075136108464331
aF0.8505247370836854
aF0.4324424910311373
aF0.7300650272531862
aF0.8148976086740269
aF0.38188037463210633
aF0.1347894061093753
aF0.9439492628788535
aF0.23804879113189992
aF0.9520011693180004
aF0.23642045648329113
aF0.7453058555738586
aF0.07978072133792002
aF0.4858921762048892
aF0.6511188786338864
atp325
a(g139
(F4.194229602813721
tp326
(lp327
F0.7688956314097233
aF0.3806681930139131
aF0.7141291078509219
aF0.10755115539557636
aF0.7592177122301276
aF0.953512919451011
aF0.5475126192042042
aF0.0062288319421557325
aF0.6956598751576266
aF0.6828301409136213
aF0.8315268976447044
aF0.7052104361796988
aF0.1376413646637833
aF0.7346197188606829
aF0.3797676643380077
aF0.8419698086605059
aF0.5859132630104656
aF0.42491337451667877
aF0.46748028333691594
aF0.6299705633809004
aF0.4277842443512525
aF0.11894567328742955
aF0.5856202347183228
aF0.8687017245816171
aF0.6884663480148829
aF0.5361997105046301
aF0.3663254491545379
aF0.3485418493557244
aF0.3066972597490093
aF0.9427082037715684
aF0.6566016401938479
aF0.2274264077000555
aF0.7325076576901361
aF0.25757562533394696
aF0.3883078435490551
aF0.3985471692207171
aF0.12550005615002635
aF0.17903571847024258
aF0.922915992204926
aF0.9575571374876858
aF0.2339007036222378
aF0.030056143865828444
aF0.6089601760851342
aF0.09338841746751525
aF0.07988654300161402
aF0.015258627810517456
aF0.36327844352400873
aF0.49061578011313633
aF0.18502001151817415
aF0.42542922900484703
aF0.5029608116607194
aF0.5439692969606295
aF0.02529536202705218
aF0.9614102948466298
aF0.4725172648803344
aF0.22275582074355216
aF0.8628790574444201
aF0.1974359515080616
aF0.39531513282416186
aF0.42563738080944247
atp328
a(g143
(F3.3158812522888184
tp329
(lp330
F0.45633846411220114
aF0.31550441670394125
aF0.46363608616776597
aF0.3086209926362171
aF0.013001842474000158
aF0.479695830013139
aF0.30240862309421357
aF0.9165722604554994
aF0.3919531148867911
aF0.3953272247666064
aF0.028132711860598292
aF0.19049827858512436
aF0.4788274317311394
aF0.6097522384366526
aF0.9310995372001355
aF0.15930329617201355
aF0.16021642256985658
aF0.9476119923414618
aF0.40727218275839006
aF0.4373652428519995
aF0.5150958215206204
aF0.2928054422059627
aF0.9440024398411339
aF0.8996997226840975
aF0.7327508858494941
aF0.20594734689782201
aF0.9347633956826561
aF0.9614353525661347
aF0.9076805004034405
aF0.9430166720420906
aF0.37225413790947737
aF0.3466794452423485
aF0.645020301707935
aF0.8432661872386932
aF0.14236224080797777
aF0.9226715688934274
aF0.3398113164363529
aF0.5333109774625219
aF0.9799317055633698
aF0.18489939447287096
aF0.8892806096480511
aF0.009461479695962782
aF0.4277904257249021
aF0.10835439122956425
aF0.9244865236364798
aF0.7374273273821245
aF0.3557242602177507
aF0.3767437122118312
aF0.1504287911786607
aF0.07972094867172486
aF0.7768275287221743
aF0.8446610939161083
aF0.1443128949190028
aF0.5522889707569374
aF0.7600279012630509
aF0.6822277039300773
aF0.6833004887260508
aF0.31444861136096725
aF0.2723612722164602
aF0.9558687908677073
atp331
a(g147
(F4.244230270385742
tp332
(lp333
F0.9459963211314173
aF0.9953882196488499
aF0.7215317130433107
aF0.6153938510490644
aF0.6333924383458517
aF0.8303211740483851
aF0.030635125366440863
aF0.02449573825839213
aF0.7075530301136171
aF0.7789323677665919
aF0.5873174827114709
aF0.5214604501519425
aF0.11095216594958801
aF0.07078596492406442
aF0.29718848283138777
aF0.13002843574380984
aF0.873505496561198
aF0.2666113784339572
aF0.334285518106721
aF0.5524211742087619
aF0.710921879464762
aF0.9823633659249249
aF0.3123773003272585
aF0.44520593995758995
aF0.2197113170170384
aF0.33070550686840594
aF0.06895478696222301
aF0.24060207680334322
aF0.14961332776607883
aF0.5698041983752182
aF0.43180054706484916
aF0.006196599500361111
aF0.03772748886588606
aF0.8264835512883377
aF0.5070039812110484
aF0.42141784129122717
aF0.7230250471075669
aF0.4408460226889024
aF0.7183783717647684
aF0.9550795074280927
aF0.45521507346987156
aF0.8513213582328996
aF0.9027942284609743
aF0.7550271716573937
aF0.9728393562948588
aF0.7863334712237495
aF0.9331360163791683
aF0.46407552295350274
aF0.3705659396465518
aF0.44677377129445006
aF0.8203583613495913
aF0.6427369424839299
aF0.9388006332954208
aF0.3573727266458916
aF0.36089158655120623
aF0.874565005677838
aF0.3999762181783838
aF0.03024263120951265
aF0.2188151245329899
aF0.42764743411159833
atp334
a(g151
(F4.182701110839844
tp335
(lp336
F0.7393345004073422
aF0.9474774340204306
aF0.08008568372825664
aF0.2648902265827201
aF0.37373287998440985
aF0.08672433574042071
aF0.6533758012361692
aF0.34022277855718475
aF0.5777926936573256
aF0.3223527896557513
aF0.26055989693676895
aF0.8030547340254102
aF0.8908347501825563
aF0.5724538221339592
aF0.3951002194275913
aF0.3382373497126664
aF0.41513726697765163
aF0.8431597640045676
aF0.6950862672968323
aF0.42546059818483783
aF0.34263145862887956
aF0.10333482721547005
aF0.6015364889538465
aF0.9247998854508623
aF0.836549296846385
aF0.9101541104460581
aF0.08451979077743599
aF0.9370742839150046
aF0.9568315140949128
aF0.6930514216783284
aF0.1251921484614782
aF0.03079262703375918
aF0.8294835261819273
aF0.2583233392654882
aF0.683280623228822
aF0.5548178559524559
aF0.1852281374884902
aF0.4031574134627177
aF0.5311411102355823
aF0.18294081383585492
aF0.34061038412731415
aF0.9328320773544263
aF0.6710182294862317
aF0.3683105946465729
aF0.29322251733104354
aF0.4291039473374877
aF0.8915826973026622
aF0.8612224893490523
aF0.22102132848590694
aF0.863668435291797
aF0.18115772876927527
aF0.6697959883678316
aF0.04587003281713131
aF0.2921270200941002
aF0.16652194971451195
aF0.05923809295843918
aF0.41903967616702287
aF0.7950534446856291
aF0.9549573427831407
aF0.8902572747787542
atp337
a(g155
(F4.340422630310059
tp338
(lp339
F0.7276936051459763
aF0.7923006665469263
aF0.4248439475323398
aF0.4793925253910002
aF0.43987936922852344
aF0.2510591512229141
aF0.08060623889250351
aF0.6332014167066714
aF0.5659362479645482
aF0.8974492298781024
aF0.1868247903607263
aF0.628949423452669
aF0.22405165508225433
aF0.40022759169143673
aF0.31960517835807967
aF0.10830630895700444
aF0.49280810458347224
aF0.1733870061789622
aF0.5113484566258886
aF0.20677156641701522
aF0.3351421349361089
aF0.45669500800321394
aF0.6193695068055362
aF0.7525949997387644
aF0.25786497371520756
aF0.1355307247470683
aF0.6897575109970098
aF0.5115540478335389
aF0.2405006317451701
aF0.14597076917931773
aF0.3507106199574501
aF0.021268795522536466
aF0.9718517188287902
aF0.7091579500864631
aF0.12764492972820618
aF0.31616931828945893
aF0.08872540359889514
aF0.415059620733236
aF0.6460352667183366
aF0.5284604217032532
aF0.15356746369021268
aF0.13940507601088514
aF0.3110082244616069
aF0.1656406613518625
aF0.9483788792369121
aF0.9533851042393636
aF0.01555043900202957
aF0.1357616256424673
aF0.17096181674934074
aF0.7045714625600283
aF0.12835574087452384
aF0.47086528018593066
aF0.9640436509552358
aF0.5153471262877768
aF0.8252515963011497
aF0.8490248817303365
aF0.7033830175400796
aF0.13414330754559867
aF0.7735040153177147
aF0.5475445661942686
atp340
a(g159
(F4.274367332458496
tp341
(lp342
F0.09021056327335708
aF0.8361279659517123
aF0.2874949477389547
aF0.29640128723049564
aF0.43094941017595856
aF0.6440049221895372
aF0.49968007615124976
aF0.3130238888600565
aF0.9475461364584422
aF0.21475064404737831
aF0.357824392893357
aF0.8893780523735214
aF0.9461474890584255
aF0.4338562218665928
aF0.8584263105797432
aF0.9537132569685404
aF0.942311289767807
aF0.12486659542221878
aF0.28993369531101987
aF0.9843858202159468
aF0.6242781324245578
aF0.936184270596986
aF0.039338065592389726
aF0.2670386969066969
aF0.0016832927650236584
aF0.3471793256178254
aF0.8385787594778643
aF0.2913835932923501
aF0.8839540380780817
aF0.03248486082925173
aF0.4334283586702503
aF0.0029976562608455826
aF0.006595320215018297
aF0.26694439552630933
aF0.0010635298853162167
aF0.7550087387205282
aF0.009668110931700946
aF0.5301303172398534
aF0.22389902508423676
aF0.5385043190530477
aF0.04604646762957931
aF0.5843676398137398
aF0.6796909595922911
aF0.21925890820182004
aF0.3623167439928815
aF0.4447794171151048
aF0.43462122412964854
aF0.2012276474113146
aF0.9774584746535125
aF0.37056240021233045
aF0.6176428694884918
aF0.42867623577711145
aF0.28940470501773985
aF0.6581584890431742
aF0.4948777050868557
aF0.007836383239102629
aF0.821560688173357
aF0.038487766662878786
aF0.790575056637695
aF0.9625832166211408
atp343
a(g163
(F7.151758670806885
tp344
(lp345
F0.17491337854331157
aF0.8987094501802776
aF0.018972238002204378
aF0.19587429711127813
aF0.4560003857070567
aF0.8387949314588681
aF0.6498815518188907
aF0.2138995044467885
aF0.6770425190475182
aF0.41893325489750166
aF0.3693679410926931
aF0.48934566483736996
aF0.3625347380010635
aF0.45089141534661825
aF0.4291361822875909
aF0.18268443278666302
aF0.5677370429988705
aF0.07910236683955962
aF0.8364458366982187
aF0.08487655827593032
aF0.24617494202229218
aF0.900792875477584
aF0.2823314170403528
aF0.4540035764792253
aF0.7007446235887357
aF0.3471883637311811
aF0.8191730551068516
aF0.6956987238854528
aF0.5955899942606998
aF0.9444195555474544
aF0.4594597564218684
aF0.5712456512349604
aF0.8103322067560765
aF0.07794790487216263
aF0.36551400009557844
aF0.7448031885135694
aF0.954597196814126
aF0.6754200702823279
aF0.19492020524886655
aF0.41572166336144634
aF0.10285121391696883
aF0.5749701553518557
aF0.09185193288468685
aF0.05068218683816639
aF0.2360483388522353
aF0.6295663377769407
aF0.4102766582621249
aF0.42649630130480165
aF0.1133336573788527
aF0.10250500471932444
aF0.4746714700736461
aF0.017653267022261998
aF0.45830712926981765
aF0.7584362231998849
aF0.11089603690723848
aF0.6766067902736153
aF0.8894704125193676
aF0.9491450584216401
aF0.16447992641355347
aF0.3485744526324406
atp346
a(g167
(F4.236705780029297
tp347
(lp348
F0.7446582290156065
aF0.04660822772993245
aF0.17648065334418916
aF0.4802594062109625
aF0.6599017146049598
aF0.8350681752154847
aF0.6028976316844032
aF0.9668738864357448
aF0.5724248126467048
aF0.7112388899207563
aF0.7512113118658893
aF0.5972266483443729
aF0.9158738563634798
aF0.07455777969428312
aF0.12089694616927749
aF0.722914997548369
aF0.7799126326303482
aF0.7584428984366552
aF0.26893487111934744
aF0.41052886914003817
aF0.6810234236947489
aF0.923320190313159
aF0.8224381392157633
aF0.5156237820734639
aF0.9367068078609573
aF0.8998474790292088
aF0.7071082039698309
aF0.26749380931697164
aF0.8647328599251364
aF0.8975943083215694
aF0.7373592629249813
aF0.18136225606247713
aF0.6050795507207704
aF0.20943830499066773
aF0.49809897468134756
aF0.7863410750882632
aF0.0448470080240021
aF0.008542102153316744
aF0.10055205312015814
aF0.8108452389456894
aF0.5898378258741419
aF0.7230324094274057
aF0.6914793281659237
aF0.39814169268792166
aF0.9044063997085902
aF0.9182214156442745
aF0.5718107005583326
aF0.376703733425517
aF0.8789712963060682
aF0.06857857118042643
aF0.6385725809524687
aF0.9289386086453219
aF0.47196779815646084
aF0.9899621984864025
aF0.06987765016870351
aF0.9906976504573449
aF0.6783238442837407
aF0.11278724680662222
aF0.3254007684905065
aF0.6962337146653153
atp349
a(g171
(F4.108240604400635
tp350
(lp351
F0.6837936965530286
aF0.5136014077936235
aF0.15283726816557475
aF0.443724387091162
aF0.608070162320924
aF0.2359248112972102
aF0.3399462130515296
aF0.40501618591857613
aF0.041516931068331875
aF0.9459687848414052
aF0.29549480334947664
aF0.9814350711495459
aF0.20693667525030024
aF0.8234100578012998
aF0.43890197061484104
aF0.22244834470685237
aF0.09154985530042825
aF0.30067367604016404
aF0.7232117188977939
aF0.4006521065976528
aF0.8121540511591002
aF0.21882843888966874
aF0.3173522873262795
aF0.560781397062894
aF0.21224284564240525
aF0.4139727505708627
aF0.1408482651859313
aF0.4525300876983801
aF0.5920070481848946
aF0.3140418344999263
aF0.014830127198057541
aF0.3675839013772094
aF0.8388325070192741
aF0.5946210968050085
aF0.6990364112942847
aF0.23400917630058127
aF0.663859527847028
aF0.6246438900660363
aF0.9924463760917751
aF0.4965757806844593
aF0.8207948886376317
aF0.8142106867483488
aF0.20266572097380242
aF0.13802595546983454
aF0.758282483671725
aF0.223676417245246
aF0.15449554730670467
aF0.2645168987845923
aF0.3398747569669345
aF0.2229400653397925
aF0.33360743882424326
aF0.6335703510881577
aF0.8242503659185083
aF0.42101861541315355
aF0.7540145091697972
aF0.12380557253459046
aF0.7426787087396636
aF0.861631775722135
aF0.9657208935176987
aF0.3873806280112193
atp352
a(g175
(F4.158442497253418
tp353
(lp354
F0.5803656193060757
aF0.8384574967747196
aF0.06275252941389953
aF0.915114231465846
aF0.4075711746714039
aF0.9526479445164786
aF0.3238461514470572
aF0.3185111112591855
aF0.9448574919733975
aF0.76618384528982
aF0.9994916730192085
aF0.7718033920606558
aF0.3790810190408753
aF0.6359639558932783
aF0.614019674315543
aF0.965696470199444
aF0.1551525469665339
aF0.2944344110406789
aF0.5024521232705808
aF0.7379249781519632
aF0.29349791014213544
aF0.9815867275983736
aF0.29127682683382283
aF0.8844848145583089
aF0.9636207144732253
aF0.6880828831776772
aF0.9958593300640833
aF0.33481253295331814
aF0.4288182610249386
aF0.1429403518387108
aF0.2379989151735702
aF0.023619300701524293
aF0.6042558906757619
aF0.19417609289893067
aF0.7701123261188451
aF0.27799516483931486
aF0.1864578606922207
aF0.5138849465293878
aF0.43161362012268756
aF0.06769059694971213
aF0.12125948243403362
aF0.5639045432114921
aF0.7252950306732739
aF0.6583547932545792
aF0.1221451092428687
aF0.10049738108994755
aF0.11060266376885108
aF0.5093303270537974
aF0.6038973144368431
aF0.6813486809243088
aF0.4731161210719087
aF0.5965727348353611
aF0.6479311297666561
aF0.48872377542915924
aF0.9090178080916338
aF0.10463793839488988
aF0.7713043660914258
aF0.9940206169037892
aF0.6527448949560651
aF0.1595213605402429
atp355
a(g179
(F6.752761363983154
tp356
(lp357
F0.9779824383164536
aF0.7515375788719578
aF0.7561781958356316
aF0.85614960298405
aF0.5071831296110515
aF0.7498859420602236
aF0.6770434055643244
aF0.4328991006337991
aF0.7544860524139603
aF0.9111803946984914
aF0.646016898247585
aF0.46073385674729217
aF0.5460532753053182
aF0.5971588300910595
aF0.8554371408594743
aF0.0348861263507243
aF0.4707175740880686
aF0.11180804701001612
aF0.7835265750835947
aF0.7034214204581327
aF0.1207485044105574
aF0.263516147838722
aF0.4380599900383053
aF0.44257437025062873
aF0.6057321255374751
aF0.122165807688696
aF0.8438843553674052
aF0.20665307974235958
aF0.5093609191053903
aF0.0002439144986863262
aF0.8573972803409149
aF0.08959587675454872
aF0.797099813066614
aF0.4742220893291309
aF0.7007868946104224
aF0.5364189619646276
aF0.26997514252173205
aF0.36306072365800357
aF0.9120572815432597
aF0.8115307610719631
aF0.7713184786638878
aF0.2292803464312858
aF0.2409341763483036
aF0.5683877619503399
aF0.19762559112072076
aF0.41340034325803265
aF0.8568241866104067
aF0.8893955423660064
aF0.6477531284501216
aF0.3435314937179844
aF0.5890767091523146
aF0.48448727446238127
aF0.29701124476462615
aF0.43409449379255327
aF0.623079898924438
aF0.49577216384219935
aF0.9805736093380334
aF0.07995228377027219
aF0.6416106711725467
aF0.5839094314738595
atp358
a(g183
(F4.2404398918151855
tp359
(lp360
F0.6470049546335997
aF0.940893370006153
aF0.11640286578670755
aF0.6448475807105536
aF0.8602751394978594
aF0.46975454479742973
aF0.16732626876583945
aF0.6771512754131815
aF0.7200778011171448
aF0.5354560536132325
aF0.3879156809044413
aF0.8708884740915587
aF0.2498455049950412
aF0.3424060605994069
aF0.343030195925768
aF0.15293385701505635
aF0.20206041889878623
aF0.42623923249690165
aF0.3615860899208905
aF0.5412488578011106
aF0.7808627599356004
aF0.7726029634644095
aF0.8383874423126991
aF0.7476738612150555
aF0.5263875228496246
aF0.05150444289713618
aF0.24844035990702296
aF0.7606368918233978
aF0.6269073256052533
aF0.7608320329196169
aF0.8076270162591227
aF0.7703129713949888
aF0.4786784136318114
aF0.05889375222191395
aF0.24178641434189585
aF0.5804634391810789
aF0.6088723539273343
aF0.4783514100215558
aF0.9730796308108284
aF0.9942282888135473
aF0.8699150518566627
aF0.6351828149466199
aF0.29409287510487825
aF0.7753866309569329
aF0.028463792908937746
aF0.5911650704803219
aF0.4984564857181074
aF0.5481255362114656
aF0.6761907911536348
aF0.7993551612897989
aF0.9133825504851231
aF0.34497662701553866
aF0.6339960065581761
aF0.5836450012257306
aF0.42129304978229776
aF0.2460406489910798
aF0.3094741807710616
aF0.9621102316580389
aF0.6637009371908502
aF0.0549227387338207
atp361
a(g187
(F1.473582148551941
tp362
(lp363
F0.3297946475285449
aF0.4345677230761892
aF0.5214357285078688
aF0.04071407632338153
aF0.9696848215594518
aF0.21828386281339862
aF0.18465314511693054
aF0.29381151275529827
aF0.22501985542516934
aF0.8053267879072499
aF0.3126448287208139
aF0.2249294373315206
aF0.109741168437131
aF0.15052772843977602
aF0.5426181764809846
aF0.8009626985196391
aF0.2923572569328662
aF0.8376018258103868
aF0.8763939929754805
aF0.18849913007593588
aF0.30309847525932254
aF0.5116891270745604
aF0.9992906970164622
aF0.742321248346085
aF0.013739332320899633
aF0.6588510770121084
aF0.9803193833946063
aF0.16649917989633678
aF0.09221409507797906
aF0.3724483622873881
aF0.04688472273872213
aF0.268682829709451
aF0.6927247065044235
aF0.08112742258088468
aF0.669942780157567
aF0.9640715039909866
aF0.6549019284927832
aF0.6697618949651599
aF0.7385522160821275
aF0.06270560667379654
aF0.6235534056283726
aF0.5078236575566332
aF0.2910075000021084
aF0.6886485630616954
aF0.5173442806568237
aF0.474272811165395
aF0.6288007249382777
aF0.9740155513392272
aF0.7692636537407025
aF0.9554775366859352
aF0.0928811454072953
aF0.4966814858149754
aF0.7250945501410069
aF0.30777148037573077
aF0.5168203104509663
aF0.03491973388018821
aF0.10431659857185538
aF0.674715385627046
aF0.1697172919010267
aF0.027666180513340688
atp364
a(g191
(F4.234163284301758
tp365
(lp366
F0.031786917111903956
aF0.6656130631249969
aF0.6437631443244582
aF0.46254959220046954
aF0.4719099501810897
aF0.06155384967039357
aF0.4732631344957481
aF0.41741016973121736
aF0.5013506817194803
aF0.6148794187484511
aF0.7699119491867744
aF0.2947608032793425
aF0.10465905499546346
aF0.2835664375368693
aF0.6869873677237709
aF0.7961789004569602
aF0.8318741498828154
aF0.821659248467869
aF0.5821726486189477
aF0.533800349829852
aF0.5029069133734623
aF0.00959334594349126
aF0.9500776736006882
aF0.5632643373337967
aF0.578476650136003
aF0.5088046105769034
aF0.3401468464452133
aF0.006795983882462053
aF0.4671145042170979
aF0.15058749554892137
aF0.974259969476534
aF0.26315582680876226
aF0.4802563979456307
aF0.9158186250755734
aF0.6854782600809602
aF0.21854838325748716
aF0.5080615552540787
aF0.4221179352703046
aF0.09403043818978996
aF0.634030808258591
aF0.3941318111846972
aF0.10654080645840092
aF0.6000569118855038
aF0.03147488433239232
aF0.5918223321825572
aF0.26315547844383
aF0.582377383032634
aF0.9649905230367378
aF0.8314342514571254
aF0.4082653320711027
aF0.525571186593111
aF0.32867124663447167
aF0.6070929193114822
aF0.46383578852479357
aF0.025069816664803457
aF0.4585654416357734
aF0.7079135744360132
aF0.15375393106048285
aF0.5857602361143537
aF0.33028165051498803
atp367
a(g195
(F3.48868989944458
tp368
(lp369
F0.5598130332494005
aF0.6559372842301836
aF0.900992355414794
aF0.3285468358270339
aF0.928353386571993
aF0.1306859462866372
aF0.7777569013029187
aF0.06870889305164174
aF0.39167366080793775
aF0.2457483456877484
aF0.24983215762363098
aF0.37256661979131833
aF0.9693292136098091
aF0.23521734154284657
aF0.44362411839679483
aF0.7952344299762529
aF0.5482274648067809
aF0.3963473293930946
aF0.656564875629074
aF0.22097053646065645
aF0.8361933297520712
aF0.5760050617319636
aF0.9849539270709169
aF0.27892378651609806
aF0.6616046370070277
aF0.8659199564492341
aF0.6785305424588711
aF0.2957901358760917
aF0.7284795388102179
aF0.6582759778098535
aF0.251948085527553
aF0.5302717744404032
aF0.6691004013046031
aF0.6462655247194872
aF0.4829857451414449
aF0.5571120940322698
aF0.8123176697857899
aF0.6402862238773829
aF0.3095853446757547
aF0.855444354940691
aF0.21248709333881177
aF0.01304544261370466
aF0.9978433671894164
aF0.9142671770662175
aF0.026476475513210862
aF0.4900368385828269
aF0.5097020213346484
aF0.719487747916186
aF0.990173180981101
aF0.25004408426649016
aF0.8957974478831408
aF0.5071247377010774
aF0.9994527147264319
aF0.26342387782018095
aF0.8041024281750773
aF0.37422372040677154
aF0.7497470542208073
aF0.33640538523487395
aF0.2749060204633512
aF0.5684111442873384
atp370
a(g199
(F12.367050170898438
tp371
(lp372
F0.8914725780427959
aF0.9748726163978747
aF0.873367935106065
aF0.9949652135367139
aF0.05529027942694997
aF0.12090218076191639
aF0.9376840436881916
aF0.19373872541749027
aF0.33786622790421017
aF0.8317079646742486
aF0.9887048190397211
aF0.05052019426499932
aF0.32677127116023963
aF0.22665777901838335
aF0.3151595304904957
aF0.2445967873970677
aF0.9010090873725793
aF0.2950438451971744
aF0.9554832203698491
aF0.13298051229284447
aF0.5814362777028764
aF0.7813611559958745
aF0.5242647697330809
aF0.1318965757563485
aF0.6097426629593709
aF0.4153647513230302
aF0.09314654144180268
aF0.912234062485137
aF0.07731660090288583
aF0.8985639565570213
aF0.09786684182010341
aF0.47661026073068
aF0.5812665760644624
aF0.13822240234085803
aF0.684768015329449
aF0.3652553333239539
aF0.43850595889844124
aF0.13581282944219186
aF0.9155833985400487
aF0.8472792768478778
aF0.9223607437417531
aF0.4610940513085032
aF0.4897607714733775
aF0.06302725008032417
aF0.4254661797932109
aF0.9438301096751381
aF0.6734459898312464
aF0.5656634446685996
aF0.48717693862248235
aF0.19421686845232067
aF0.8004395243240091
aF0.6788888674418134
aF0.923609743785049
aF0.027369029813290258
aF0.07246705663434516
aF0.02315013811269373
aF0.5993066457571387
aF0.7799068903343316
aF0.9241344182836871
aF0.5772433548697951
atp373
a(g203
(F9.202851295471191
tp374
(lp375
F0.8118780153348245
aF0.08172912961647416
aF0.997077431351053
aF0.6877121783611846
aF0.8093352252894648
aF0.5768053460363602
aF0.2533683305563327
aF0.7226044567512924
aF0.3937823936401863
aF0.9389392992354388
aF0.6353367656903405
aF0.8942894497570677
aF0.049893117237756246
aF0.6810510857776363
aF0.8911092750152476
aF0.14450571959452552
aF0.8158490887855271
aF0.7775469347555047
aF0.7096556774612035
aF0.2644912716917057
aF0.41875081338351894
aF0.4008278716836481
aF0.8996751340526873
aF0.028249582808807072
aF0.18664692136013794
aF0.8479324780710787
aF0.293465580467964
aF0.7115015078335956
aF0.6185602517262103
aF0.6808301648380183
aF0.8866859914016243
aF0.21161170912039584
aF0.9450278691558971
aF0.8251445388358352
aF0.3422596303533736
aF0.2629097932065172
aF0.6703236663161262
aF0.672588692802626
aF0.9144357243446933
aF0.5098001853200639
aF0.3620198730665318
aF0.4616316994701898
aF0.3308087450578002
aF0.9243750545600664
aF0.15871493953557336
aF0.9368133903022563
aF0.0250252932879359
aF0.46690437103691473
aF0.0189321882617689
aF0.6594389739413058
aF0.41071286794509876
aF0.15363900293776278
aF0.652074699505384
aF0.7307605859663102
aF0.7385952278356158
aF0.5556778402495077
aF0.39972455564894505
aF0.23254127513684764
aF0.6651737974122219
aF0.43901312498984
atp376
a(g207
(F7.378060340881348
tp377
(lp378
F0.4298340173917159
aF0.2577109999262919
aF0.22826738179841055
aF0.10850597810365237
aF0.9903423886277753
aF0.5844836294855172
aF0.8382813584086767
aF0.6249879776509665
aF0.32964653057494486
aF0.8995193787696916
aF0.7604165594397103
aF0.9264237623493278
aF0.07042745368975689
aF0.6208516411709909
aF0.5096807154693194
aF0.26529190249131784
aF0.4380232560339852
aF0.49281039679755256
aF0.23288193695642445
aF0.03331437179010055
aF0.7601517084130037
aF0.6247496988261487
aF0.9308344988857457
aF0.6964297427012065
aF0.6855526752804216
aF0.3372196009163091
aF0.5930871348280241
aF0.06472045707265295
aF0.9504999334361129
aF0.8755650251302043
aF0.9039324622722028
aF0.34513507858787074
aF0.0025879216031079455
aF0.66133768996528
aF0.8660232757733934
aF0.3519085592381256
aF0.6423945430312433
aF0.014189861248441682
aF0.026725495922275022
aF0.8081969335174164
aF0.29542521878519157
aF0.7855709452305689
aF0.4311656004266704
aF0.160577730095126
aF0.2885682895728664
aF0.8899029276266031
aF0.9314734324856143
aF0.20807328355421606
aF0.7907272490542098
aF0.4311694004068629
aF0.31923596645423213
aF0.347345379230111
aF0.7778962485120694
aF0.5507158471266275
aF0.9759465397654319
aF0.4614435497277849
aF0.774922902559136
aF0.6724453230611313
aF0.8092542937235593
aF0.49828520571202317
atp379
asS'initPop'
p380
I50
sS'generations'
p381
I0
satp382
Rp383
(dp384
S'log_header'
p385
I01
sS'header'
p386
NsS'columns_len'
p387
NsS'buffindex'
p388
I0
sS'chapters'
p389
ccollections
defaultdict
p390
(g1
tp391
Rp392
sb.