(lp0
(F1429898876.019629
S'I'
p1
I0
I0
tp2
a(F1429898877.80681
g1
I0
I0
tp3
a(F1429898877.82188
S'RQ'
p4
I0
I0
tp5
a(F1429898877.979803
g1
I0
I1
tp6
a(F1429898877.980643
S'RQ'
p7
I0
I1
tp8
a(F1429898878.020146
S'S'
p9
I0
I2
tp10
a.