(lp0
(F1429898758.823469
S'I'
p1
I0
I0
tp2
a(F1429898760.58176
g1
I0
I0
tp3
a(F1429898760.595602
S'RQ'
p4
I0
I0
tp5
a(F1429898760.597346
g1
I0
I1
tp6
a(F1429898760.598713
S'RQ'
p7
I0
I1
tp8
a(F1429898760.879292
S'S'
p9
I0
I2
tp10
a.