ccollections
defaultdict
p1
(cfunctools
partial
p2
(g1
tRp3
(g1
(c__builtin__
list
p4
tp5
NNtbtRp6
(S'127.0.0.1:52573'
p7
I0
tp8
g1
(g4
tRp9
S'callable'
p10
S'No name'
p11
sS'end_time'
p12
(lp13
F1429898760.878113
asS'parent'
p14
(I-1
I0
tp15
sS'executionTime'
p16
F2.0400569438934326
sS'worker'
p17
g7
sS'start_time'
p18
(lp19
F1429898758.838038
asS'creationTime'
p20
S'Fri Apr 24 13:05:58 2015'
p21
ss.