ccollections
defaultdict
p1
(cfunctools
partial
p2
(g1
tRp3
(g1
(c__builtin__
list
p4
tp5
NNtbtRp6
(S'127.0.0.1:58871'
p7
I0
tp8
g1
(g4
tRp9
S'callable'
p10
S'No name'
p11
sS'end_time'
p12
(lp13
F1429898878.0197999
asS'parent'
p14
(I-1
I0
tp15
sS'executionTime'
p16
F1.9984049797058105
sS'worker'
p17
g7
sS'start_time'
p18
(lp19
F1429898876.021374
asS'creationTime'
p20
S'Fri Apr 24 13:07:56 2015'
p21
ss.