ccopy_reg
_reconstructor
p0
(cdeap.tools.support
History
p1
cdill.dill
_load_type
p2
(S'ObjectType'
p3
tp4
Rp5
Ntp6
Rp7
(dp8
S'genealogy_tree'
p9
(dp10
I1
(tsI2
(tssS'genealogy_index'
p11
I2
sS'genealogy_history'
p12
(dp13
I1
g0
(cdeap.creator
meta_creator
p14
(S'Individual'
p15
g2
(S'ListType'
p16
tp17
Rp18
(dp19
S'ID'
p20
NsS'fitness'
p21
g14
(S'FitnessMin'
p22
cdeap.base
Fitness
p23
(dp24
S'weights'
p25
(F-1.0
tp26
stp27
Rp28
stp29
Rp30
g18
(lp31
F0.45633846411220114
aF0.31550441670394125
aF0.46363608616776597
aF0.3086209926362171
aF0.013001842474000158
aF0.479695830013139
aF0.30240862309421357
aF0.9165722604554994
aF0.3919531148867911
aF0.3953272247666064
aF0.028132711860598292
aF0.19049827858512436
aI1
aI1
aI1
aF0.9373284201625616
aF0.8533281554592619
aF0.3064599033759874
aF0.12908296866898905
aF0.8413429259128087
aF0.3096371515372175
aF0.6618273189040453
aF0.6294721895068692
aF0.6311620990955914
aF0.06022130351059474
aF0.6944992188457483
aF0.5307969460415565
aF0.6989416016954564
aF0.9038258443890377
aF0.4099931916830303
aF0.14681802646464226
aF0.25002287756824615
aF0.4914022393561672
aF0.48036429493834343
aF0.45169332285883645
aF0.842574097858232
aF0.04598407925003645
aF0.7535516976972665
aF0.8468250631248619
aF0.5286025069455741
aI0
aF0.8679229202047375
aF0.4063290126830873
aF0.8106516227766005
aF0.10307882551748548
aF0.7492834355935499
aF0.22904989356350403
aF0.44244994135760873
aF0.3137342131591817
aF0.9420434568819893
aF0.8108710305376252
aF0.8446610939161083
aF0.1443128949190028
aF0.5522889707569374
aF0.7600279012630509
aF0.6822277039300773
aF0.6833004887260508
aF0.31444861136096725
aF0.2723612722164602
aF0.9558687908677073
atp32
Rp33
(dp34
S'history_index'
p35
I1
sg20
S'000-001'
p36
sg21
g0
(g28
g5
Ntp37
Rp38
(dp39
S'wvalues'
p40
(F-4.242640495300293
tp41
sbsbsI2
g0
(g30
g18
(lp42
F0.45633846411220114
aF0.31550441670394125
aF0.46363608616776597
aF0.3086209926362171
aF0.013001842474000158
aF0.479695830013139
aF0.30240862309421357
aF0.9165722604554994
aF0.3919531148867911
aF0.3953272247666064
aF0.028132711860598292
aF0.19049827858512436
aI1
aI1
aI1
aF0.9373284201625616
aF0.8533281554592619
aF0.3064599033759874
aF0.12908296866898905
aF0.8413429259128087
aF0.3096371515372175
aF0.6618273189040453
aF0.6294721895068692
aF0.6311620990955914
aF0.06022130351059474
aF0.6944992188457483
aF0.5307969460415565
aF0.6989416016954564
aF0.9038258443890377
aF0.4099931916830303
aF0.14681802646464226
aF0.25002287756824615
aF0.4914022393561672
aF0.48036429493834343
aF0.45169332285883645
aF0.842574097858232
aF0.04598407925003645
aF0.7535516976972665
aF0.8468250631248619
aF0.5286025069455741
aI0
aF0.8679229202047375
aF0.4063290126830873
aF0.8106516227766005
aF0.10307882551748548
aF0.7492834355935499
aF0.22904989356350403
aF0.44244994135760873
aF0.3137342131591817
aF0.9420434568819893
aF0.8108710305376252
aF0.8446610939161083
aF0.1443128949190028
aF0.5522889707569374
aF0.7600279012630509
aF0.6822277039300773
aF0.6833004887260508
aF0.31444861136096725
aF0.2723612722164602
aF0.9558687908677073
atp43
Rp44
(dp45
g35
I2
sg20
S'000-002'
p46
sg21
g0
(g28
g5
Ntp47
Rp48
(dp49
g40
(F-4.242640495300293
tp50
sbsbssb.