ccopy_reg
_reconstructor
p0
(cdeap.tools.support
Logbook
p1
cdill.dill
_load_type
p2
(S'ListType'
p3
tp4
Rp5
(lp6
(dp7
S'indivId'
p8
S'000-001'
p9
sS'genome'
p10
(lp11
F0.3790985254337701
aF0.567098167179614
aF0.5955925126571219
aF0.4498588988554526
aF0.45701982539471864
aF0.3116509978753955
aF0.3133373611975704
aF0.29485946100158045
aF0.5307724612356264
aF0.3962220215994189
aF0.7187503721849594
aF0.5480919969498905
aF0.582075082707141
aF0.16765093779104812
aF0.029277197597395443
aF0.20874191791401042
aF0.022575436577678576
aF0.6346744421866868
aF0.2244417391997393
aF0.398309870301092
aF0.6195007984120342
aF0.0019484974344642358
aF0.03566996876236428
aF0.37678955251943136
aF0.21644443407337655
aF0.4048454828536602
aF0.8659941335573602
aF0.25572342020850636
aF0.6014348792249553
aF0.22690134085102698
aF0.20608794746311854
aF0.17591993612773082
aF0.8885993262120673
aF0.6715822963723029
aF0.37582036742565106
aF0.01798798449939376
aF0.3525379118118491
aF0.30602276252477023
aF0.42334245064614184
aF0.39410618841423173
aF0.569013590836327
aF0.5751778692306263
aF0.6232828041751413
aF0.24976651629104318
aF0.1309454633729532
aF0.24507316100625598
aF0.989330052745969
aF0.9569592935418557
aF0.7115764135230284
aF0.7676115740419204
aF0.08694693688587751
aF0.9028118459872476
aF0.5375014817017365
aF0.09894442813170345
aF0.8125945489088434
aF0.5300534116638986
aF0.6950708555045416
aF0.3318716477651059
aF0.965555162886077
aF0.2501179233661036
asS'fitness'
p12
(F4.242640495300293
tp13
sa(dp14
g8
S'000-002'
p15
sg10
(lp16
F0.24138247743851493
aF0.09696807065302482
aF0.6121772791607862
aF0.5178368630163431
aF0.46532550577296483
aF0.8442382076652287
aF0.43989497483172524
aF0.8437708587447599
aF0.06485964093513452
aF0.8439821316397432
aF0.32875701614259145
aF0.4320164574705886
aF0.2627444730005214
aF0.650690486330408
aF0.07826413945779476
aF0.10754077019629094
aF0.2855637965052924
aF0.045601941621106645
aF0.9608175421588783
aF0.01616414734422067
aF0.6035017741864835
aF0.6733061733547587
aF0.9417110326758313
aF0.7100432587709465
aF0.3255601902775359
aF0.10155763563414877
aF0.47239461396171567
aF0.3070009714400088
aF0.5572196197668691
aF0.330365111340602
aF0.32445528378267485
aF0.9794668643678344
aF0.7969030205434561
aF0.9886250822357301
aF0.07940994130836332
aF0.4588355578091533
aF0.8668238568425944
aF0.47915207492742673
aF0.807262960209622
aF0.023363770515924642
aF0.6023989538220866
aF0.07733242788163808
aF0.5442000525379087
aF0.049196525096247834
aF0.7399430301840194
aF0.5030198434529128
aF0.047073860316548255
aF0.022632746739208343
aF0.8264925631446832
aF0.3756554606230915
aF0.0071538258880377015
aF0.050402740750721375
aF0.8227646207266283
aF0.9685839284015374
aF0.5262875813469904
aF0.16117594469210828
aF0.47582667563157854
aF0.4876641861203469
aF0.15133760508293048
aF0.22485718445003233
asg12
(F4.242640495300293
tp17
sa(dp18
S'mutationProb'
p19
F0.2
sS'tournSize'
p20
I3
sS'timeElapsed'
p21
S'0:00:00.070290'
p22
sS'indivProb'
p23
F0.05
sS'genomeSize'
p24
I60
sS'finalPop'
p25
I2
sS'length'
p26
I10
sS'cloneName'
p27
S'Random population'
p28
sS'cxProb'
p29
F0.5
sS'exp'
p30
S'initializeBraiten2_2_Full_GA'
p31
sS'type'
p32
S'random'
p33
sS'date'
p34
S'Fri, 05 Jun 2015 14:32:00'
p35
sS'finalIndivs'
p36
(lp37
(g9
(F4.242640495300293
tp38
(lp39
F0.3790985254337701
aF0.567098167179614
aF0.5955925126571219
aF0.4498588988554526
aF0.45701982539471864
aF0.3116509978753955
aF0.3133373611975704
aF0.29485946100158045
aF0.5307724612356264
aF0.3962220215994189
aF0.7187503721849594
aF0.5480919969498905
aF0.582075082707141
aF0.16765093779104812
aF0.029277197597395443
aF0.20874191791401042
aF0.022575436577678576
aF0.6346744421866868
aF0.2244417391997393
aF0.398309870301092
aF0.6195007984120342
aF0.0019484974344642358
aF0.03566996876236428
aF0.37678955251943136
aF0.21644443407337655
aF0.4048454828536602
aF0.8659941335573602
aF0.25572342020850636
aF0.6014348792249553
aF0.22690134085102698
aF0.20608794746311854
aF0.17591993612773082
aF0.8885993262120673
aF0.6715822963723029
aF0.37582036742565106
aF0.01798798449939376
aF0.3525379118118491
aF0.30602276252477023
aF0.42334245064614184
aF0.39410618841423173
aF0.569013590836327
aF0.5751778692306263
aF0.6232828041751413
aF0.24976651629104318
aF0.1309454633729532
aF0.24507316100625598
aF0.989330052745969
aF0.9569592935418557
aF0.7115764135230284
aF0.7676115740419204
aF0.08694693688587751
aF0.9028118459872476
aF0.5375014817017365
aF0.09894442813170345
aF0.8125945489088434
aF0.5300534116638986
aF0.6950708555045416
aF0.3318716477651059
aF0.965555162886077
aF0.2501179233661036
atp40
a(g15
(F4.242640495300293
tp41
(lp42
F0.24138247743851493
aF0.09696807065302482
aF0.6121772791607862
aF0.5178368630163431
aF0.46532550577296483
aF0.8442382076652287
aF0.43989497483172524
aF0.8437708587447599
aF0.06485964093513452
aF0.8439821316397432
aF0.32875701614259145
aF0.4320164574705886
aF0.2627444730005214
aF0.650690486330408
aF0.07826413945779476
aF0.10754077019629094
aF0.2855637965052924
aF0.045601941621106645
aF0.9608175421588783
aF0.01616414734422067
aF0.6035017741864835
aF0.6733061733547587
aF0.9417110326758313
aF0.7100432587709465
aF0.3255601902775359
aF0.10155763563414877
aF0.47239461396171567
aF0.3070009714400088
aF0.5572196197668691
aF0.330365111340602
aF0.32445528378267485
aF0.9794668643678344
aF0.7969030205434561
aF0.9886250822357301
aF0.07940994130836332
aF0.4588355578091533
aF0.8668238568425944
aF0.47915207492742673
aF0.807262960209622
aF0.023363770515924642
aF0.6023989538220866
aF0.07733242788163808
aF0.5442000525379087
aF0.049196525096247834
aF0.7399430301840194
aF0.5030198434529128
aF0.047073860316548255
aF0.022632746739208343
aF0.8264925631446832
aF0.3756554606230915
aF0.0071538258880377015
aF0.050402740750721375
aF0.8227646207266283
aF0.9685839284015374
aF0.5262875813469904
aF0.16117594469210828
aF0.47582667563157854
aF0.4876641861203469
aF0.15133760508293048
aF0.22485718445003233
atp43
asS'initPop'
p44
I2
sS'generations'
p45
I0
satp46
Rp47
(dp48
S'log_header'
p49
I01
sS'header'
p50
NsS'columns_len'
p51
NsS'buffindex'
p52
I0
sS'chapters'
p53
ccollections
defaultdict
p54
(g1
tp55
Rp56
sb.