(dp0
S'show_imports'
p1
I1
sS'prj_name'
p2
S'Homeo'
p3
sS'docformat'
p4
S'epytext'
p5
sS'inheritance'
p6
S'grouped'
p7
sS'help'
p8
NsS'modules'
p9
(S'/home/stefano/Documents/Projects/Homeostat/Simulator/Python-port/Homeo/src/Core/HomeoConnection.py'
p10
S'/home/stefano/Documents/Projects/Homeostat/Simulator/Python-port/Homeo/src/Core/HomeoDataCollector.py'
p11
S'/home/stefano/Documents/Projects/Homeostat/Simulator/Python-port/Homeo/src/Core/HomeoDataUnit.py'
p12
S'/home/stefano/Documents/Projects/Homeostat/Simulator/Python-port/Homeo/src/Core/HomeoNeedleUnit.py'
p13
S'/home/stefano/Documents/Projects/Homeostat/Simulator/Python-port/Homeo/src/Core/HomeoUniselector.py'
p14
S'/home/stefano/Documents/Projects/Homeostat/Simulator/Python-port/Homeo/src/Core/HomeoUniselectorUniformRandom.py'
p15
S'/home/stefano/Documents/Projects/Homeostat/Simulator/Python-port/Homeo/src/Core/HomeoUnit.py'
p16
S'/home/stefano/Documents/Projects/Homeostat/Simulator/Python-port/Homeo/src/Core/Homeostat.py'
p17
S'/home/stefano/Documents/Projects/Homeostat/Simulator/Python-port/Homeo/src/Core/HomeoConnectionTest.py'
p18
S'/home/stefano/Documents/Projects/Homeostat/Simulator/Python-port/Homeo/src/Core/HomeoDataUnitTest.py'
p19
S'/home/stefano/Documents/Projects/Homeostat/Simulator/Python-port/Homeo/src/Core/HomeoNeedleUnitTest.py'
p20
S'/home/stefano/Documents/Projects/Homeostat/Simulator/Python-port/Homeo/src/Core/HomeostatTest.py'
p21
S'/home/stefano/Documents/Projects/Homeostat/Simulator/Python-port/Homeo/src/Core/HomeoUniselectorTest.py'
p22
S'/home/stefano/Documents/Projects/Homeostat/Simulator/Python-port/Homeo/src/Core/HomeoUniselectorUniformRandomTest.py'
p23
S'/home/stefano/Documents/Projects/Homeostat/Simulator/Python-port/Homeo/src/Core/HomeoUnitTest.py'
p24
S'/home/stefano/Documents/Projects/Homeostat/Simulator/Python-port/Homeo/src/Core/HomeoUnitAristotelianTest.py'
p25
S'/home/stefano/Documents/Projects/Homeostat/Simulator/Python-port/Homeo/src/Core/HomeoUnitNewtonianTest.py'
p26
tp27
sS'private'
p28
I1
sS'prj_url'
p29
NsS'introspect_or_parse'
p30
S'both'
p31
sS'frames'
p32
I1
sS'css'
p33
S'default'
p34
sS'target'
p35
S'/home/stefano/Documents/Projects/Homeostat/Simulator/Python-port/Homeo/doc/html'
p36
s.