ccopy_reg
_reconstructor
p0
(cdeap.tools.support
History
p1
cdill.dill
_load_type
p2
(S'ObjectType'
p3
tp4
Rp5
Ntp6
Rp7
(dp8
S'genealogy_tree'
p9
(dp10
I1
(tsI2
(tsI3
(tsI4
(tsI5
(tsI6
(tsI7
(tsI8
(tsI9
(tsI10
(tsI11
(I1
I1
tp11
sI12
g11
sI13
(I8
I3
tp12
sI14
g12
sI15
(I3
tp13
sI16
(I11
tp14
sI17
(I12
tp15
sI18
(I7
tp16
sI19
(I14
I4
tp17
sI20
g17
sI21
(I4
I13
tp18
sI22
g18
sI23
(I13
I13
tp19
sI24
g19
sI25
(I14
I10
tp20
sI26
g20
sI27
(I13
I13
tp21
sI28
g21
sI29
(I28
I21
tp22
sI30
g22
sI31
(I21
I24
tp23
sI32
g23
sI33
(I27
I20
tp24
sI34
g24
sI35
(I25
I31
tp25
sI36
g25
sI37
(I25
I30
tp26
sI38
g26
sI39
(I25
I28
tp27
sI40
g27
sI41
(I36
tp28
sI42
(I38
tp29
sI43
(I40
tp30
sI44
(I34
I33
tp31
sI45
g31
sI46
(I34
I31
tp32
sI47
g32
sI48
(I30
tp33
ssS'genealogy_index'
p34
I48
sS'genealogy_history'
p35
(dp36
I1
g0
(cdeap.creator
meta_creator
p37
(S'Individual'
p38
g2
(S'ListType'
p39
tp40
Rp41
(dp42
S'ID'
p43
NsS'fitness'
p44
g37
(S'FitnessMin'
p45
cdeap.base
Fitness
p46
(dp47
S'weights'
p48
(F-1.0
tp49
stp50
Rp51
stp52
Rp53
g41
(lp54
F0.45633846411220114
aF0.31550441670394125
aF0.46363608616776597
aF0.3086209926362171
aF0.013001842474000158
aF0.479695830013139
aF0.30240862309421357
aF0.9165722604554994
aF0.3919531148867911
aF0.3953272247666064
aF0.028132711860598292
aF0.19049827858512436
aI1
aI1
aI1
aF0.9373284201625616
aF0.8533281554592619
aF0.3064599033759874
aF0.12908296866898905
aF0.8413429259128087
aF0.3096371515372175
aF0.6618273189040453
aF0.6294721895068692
aF0.6311620990955914
aF0.06022130351059474
aF0.6944992188457483
aF0.5307969460415565
aF0.6989416016954564
aF0.9038258443890377
aF0.4099931916830303
aF0.14681802646464226
aF0.25002287756824615
aF0.4914022393561672
aF0.48036429493834343
aF0.45169332285883645
aF0.842574097858232
aF0.04598407925003645
aF0.7535516976972665
aF0.8468250631248619
aF0.5286025069455741
aI0
aF0.8679229202047375
aF0.4063290126830873
aF0.8106516227766005
aF0.10307882551748548
aF0.7492834355935499
aF0.22904989356350403
aF0.44244994135760873
aF0.3137342131591817
aF0.9420434568819893
aF0.8108710305376252
aF0.8446610939161083
aF0.1443128949190028
aF0.5522889707569374
aF0.7600279012630509
aF0.6822277039300773
aF0.6833004887260508
aF0.31444861136096725
aF0.2723612722164602
aF0.9558687908677073
atp55
Rp56
(dp57
S'history_index'
p58
I1
sg43
S'000-001'
p59
sg44
g0
(g51
g5
Ntp60
Rp61
(dp62
S'wvalues'
p63
(F-0.01071148831397295
tp64
sbsbsI2
g0
(g53
g41
(lp65
F0.45633846411220114
aF0.31550441670394125
aF0.46363608616776597
aF0.3086209926362171
aF0.013001842474000158
aF0.479695830013139
aF0.30240862309421357
aF0.9165722604554994
aF0.3919531148867911
aF0.3953272247666064
aF0.028132711860598292
aF0.19049827858512436
aI1
aI1
aI1
aF0.9373284201625616
aF0.8533281554592619
aF0.3064599033759874
aF0.12908296866898905
aF0.8413429259128087
aF0.3096371515372175
aF0.6618273189040453
aF0.6294721895068692
aF0.6311620990955914
aF0.06022130351059474
aF0.6944992188457483
aF0.5307969460415565
aF0.6989416016954564
aF0.9038258443890377
aF0.4099931916830303
aF0.14681802646464226
aF0.25002287756824615
aF0.4914022393561672
aF0.48036429493834343
aF0.45169332285883645
aF0.842574097858232
aF0.04598407925003645
aF0.7535516976972665
aF0.8468250631248619
aF0.5286025069455741
aI0
aF0.8679229202047375
aF0.4063290126830873
aF0.8106516227766005
aF0.10307882551748548
aF0.7492834355935499
aF0.22904989356350403
aF0.44244994135760873
aF0.3137342131591817
aF0.9420434568819893
aF0.8108710305376252
aF0.8446610939161083
aF0.1443128949190028
aF0.5522889707569374
aF0.7600279012630509
aF0.6822277039300773
aF0.6833004887260508
aF0.31444861136096725
aF0.2723612722164602
aF0.9558687908677073
atp66
Rp67
(dp68
g58
I2
sg43
S'000-002'
p69
sg44
g0
(g51
g5
Ntp70
Rp71
(dp72
g63
(F-0.01071148831397295
tp73
sbsbsI3
g0
(g53
g41
(lp74
F0.45633846411220114
aF0.31550441670394125
aF0.46363608616776597
aF0.3086209926362171
aF0.013001842474000158
aF0.479695830013139
aF0.30240862309421357
aF0.9165722604554994
aF0.3919531148867911
aF0.3953272247666064
aF0.028132711860598292
aF0.19049827858512436
aI1
aI1
aI1
aF0.9373284201625616
aF0.8533281554592619
aF0.3064599033759874
aF0.12908296866898905
aF0.8413429259128087
aF0.3096371515372175
aF0.6618273189040453
aF0.6294721895068692
aF0.6311620990955914
aF0.06022130351059474
aF0.6944992188457483
aF0.5307969460415565
aF0.6989416016954564
aF0.9038258443890377
aF0.4099931916830303
aF0.14681802646464226
aF0.25002287756824615
aF0.4914022393561672
aF0.48036429493834343
aF0.45169332285883645
aF0.842574097858232
aF0.04598407925003645
aF0.7535516976972665
aF0.8468250631248619
aF0.5286025069455741
aI0
aF0.8679229202047375
aF0.4063290126830873
aF0.8106516227766005
aF0.10307882551748548
aF0.7492834355935499
aF0.22904989356350403
aF0.44244994135760873
aF0.3137342131591817
aF0.9420434568819893
aF0.8108710305376252
aF0.8446610939161083
aF0.1443128949190028
aF0.5522889707569374
aF0.7600279012630509
aF0.6822277039300773
aF0.6833004887260508
aF0.31444861136096725
aF0.2723612722164602
aF0.9558687908677073
atp75
Rp76
(dp77
g58
I3
sg43
S'000-003'
p78
sg44
g0
(g51
g5
Ntp79
Rp80
(dp81
g63
(F-0.01071148831397295
tp82
sbsbsI4
g0
(g53
g41
(lp83
F0.45633846411220114
aF0.31550441670394125
aF0.46363608616776597
aF0.3086209926362171
aF0.013001842474000158
aF0.479695830013139
aF0.30240862309421357
aF0.9165722604554994
aF0.3919531148867911
aF0.3953272247666064
aF0.028132711860598292
aF0.19049827858512436
aI1
aI1
aI1
aF0.9373284201625616
aF0.8533281554592619
aF0.3064599033759874
aF0.12908296866898905
aF0.8413429259128087
aF0.3096371515372175
aF0.6618273189040453
aF0.6294721895068692
aF0.6311620990955914
aF0.06022130351059474
aF0.6944992188457483
aF0.5307969460415565
aF0.6989416016954564
aF0.9038258443890377
aF0.4099931916830303
aF0.14681802646464226
aF0.25002287756824615
aF0.4914022393561672
aF0.48036429493834343
aF0.45169332285883645
aF0.842574097858232
aF0.04598407925003645
aF0.7535516976972665
aF0.8468250631248619
aF0.5286025069455741
aI0
aF0.8679229202047375
aF0.4063290126830873
aF0.8106516227766005
aF0.10307882551748548
aF0.7492834355935499
aF0.22904989356350403
aF0.44244994135760873
aF0.3137342131591817
aF0.9420434568819893
aF0.8108710305376252
aF0.8446610939161083
aF0.1443128949190028
aF0.5522889707569374
aF0.7600279012630509
aF0.6822277039300773
aF0.6833004887260508
aF0.31444861136096725
aF0.2723612722164602
aF0.9558687908677073
atp84
Rp85
(dp86
g58
I4
sg43
S'000-004'
p87
sg44
g0
(g51
g5
Ntp88
Rp89
(dp90
g63
(F-0.01071148831397295
tp91
sbsbsI5
g0
(g53
g41
(lp92
F0.45633846411220114
aF0.31550441670394125
aF0.46363608616776597
aF0.3086209926362171
aF0.013001842474000158
aF0.479695830013139
aF0.30240862309421357
aF0.9165722604554994
aF0.3919531148867911
aF0.3953272247666064
aF0.028132711860598292
aF0.19049827858512436
aI1
aI1
aI1
aF0.9373284201625616
aF0.8533281554592619
aF0.3064599033759874
aF0.12908296866898905
aF0.8413429259128087
aF0.3096371515372175
aF0.6618273189040453
aF0.6294721895068692
aF0.6311620990955914
aF0.06022130351059474
aF0.6944992188457483
aF0.5307969460415565
aF0.6989416016954564
aF0.9038258443890377
aF0.4099931916830303
aF0.14681802646464226
aF0.25002287756824615
aF0.4914022393561672
aF0.48036429493834343
aF0.45169332285883645
aF0.842574097858232
aF0.04598407925003645
aF0.7535516976972665
aF0.8468250631248619
aF0.5286025069455741
aI0
aF0.8679229202047375
aF0.4063290126830873
aF0.8106516227766005
aF0.10307882551748548
aF0.7492834355935499
aF0.22904989356350403
aF0.44244994135760873
aF0.3137342131591817
aF0.9420434568819893
aF0.8108710305376252
aF0.8446610939161083
aF0.1443128949190028
aF0.5522889707569374
aF0.7600279012630509
aF0.6822277039300773
aF0.6833004887260508
aF0.31444861136096725
aF0.2723612722164602
aF0.9558687908677073
atp93
Rp94
(dp95
g58
I5
sg43
S'000-005'
p96
sg44
g0
(g51
g5
Ntp97
Rp98
(dp99
g63
(F-0.01071148831397295
tp100
sbsbsI6
g0
(g53
g41
(lp101
F0.45633846411220114
aF0.31550441670394125
aF0.46363608616776597
aF0.3086209926362171
aF0.013001842474000158
aF0.479695830013139
aF0.30240862309421357
aF0.9165722604554994
aF0.3919531148867911
aF0.3953272247666064
aF0.028132711860598292
aF0.19049827858512436
aI1
aI1
aI1
aF0.9373284201625616
aF0.8533281554592619
aF0.3064599033759874
aF0.12908296866898905
aF0.8413429259128087
aF0.3096371515372175
aF0.6618273189040453
aF0.6294721895068692
aF0.6311620990955914
aF0.06022130351059474
aF0.6944992188457483
aF0.5307969460415565
aF0.6989416016954564
aF0.9038258443890377
aF0.4099931916830303
aF0.14681802646464226
aF0.25002287756824615
aF0.4914022393561672
aF0.48036429493834343
aF0.45169332285883645
aF0.842574097858232
aF0.04598407925003645
aF0.7535516976972665
aF0.8468250631248619
aF0.5286025069455741
aI0
aF0.8679229202047375
aF0.4063290126830873
aF0.8106516227766005
aF0.10307882551748548
aF0.7492834355935499
aF0.22904989356350403
aF0.44244994135760873
aF0.3137342131591817
aF0.9420434568819893
aF0.8108710305376252
aF0.8446610939161083
aF0.1443128949190028
aF0.5522889707569374
aF0.7600279012630509
aF0.6822277039300773
aF0.6833004887260508
aF0.31444861136096725
aF0.2723612722164602
aF0.9558687908677073
atp102
Rp103
(dp104
g58
I6
sg43
S'000-006'
p105
sg44
g0
(g51
g5
Ntp106
Rp107
(dp108
g63
(F-0.01071148831397295
tp109
sbsbsI7
g0
(g53
g41
(lp110
F0.45633846411220114
aF0.31550441670394125
aF0.46363608616776597
aF0.3086209926362171
aF0.013001842474000158
aF0.479695830013139
aF0.30240862309421357
aF0.9165722604554994
aF0.3919531148867911
aF0.3953272247666064
aF0.028132711860598292
aF0.19049827858512436
aI1
aI1
aI1
aF0.9373284201625616
aF0.8533281554592619
aF0.3064599033759874
aF0.12908296866898905
aF0.8413429259128087
aF0.3096371515372175
aF0.6618273189040453
aF0.6294721895068692
aF0.6311620990955914
aF0.06022130351059474
aF0.6944992188457483
aF0.5307969460415565
aF0.6989416016954564
aF0.9038258443890377
aF0.4099931916830303
aF0.14681802646464226
aF0.25002287756824615
aF0.4914022393561672
aF0.48036429493834343
aF0.45169332285883645
aF0.842574097858232
aF0.04598407925003645
aF0.7535516976972665
aF0.8468250631248619
aF0.5286025069455741
aI0
aF0.8679229202047375
aF0.4063290126830873
aF0.8106516227766005
aF0.10307882551748548
aF0.7492834355935499
aF0.22904989356350403
aF0.44244994135760873
aF0.3137342131591817
aF0.9420434568819893
aF0.8108710305376252
aF0.8446610939161083
aF0.1443128949190028
aF0.5522889707569374
aF0.7600279012630509
aF0.6822277039300773
aF0.6833004887260508
aF0.31444861136096725
aF0.2723612722164602
aF0.9558687908677073
atp111
Rp112
(dp113
g58
I7
sg43
S'000-007'
p114
sg44
g0
(g51
g5
Ntp115
Rp116
(dp117
g63
(F-0.01071148831397295
tp118
sbsbsI8
g0
(g53
g41
(lp119
F0.45633846411220114
aF0.31550441670394125
aF0.46363608616776597
aF0.3086209926362171
aF0.013001842474000158
aF0.479695830013139
aF0.30240862309421357
aF0.9165722604554994
aF0.3919531148867911
aF0.3953272247666064
aF0.028132711860598292
aF0.19049827858512436
aI1
aI1
aI1
aF0.9373284201625616
aF0.8533281554592619
aF0.3064599033759874
aF0.12908296866898905
aF0.8413429259128087
aF0.3096371515372175
aF0.6618273189040453
aF0.6294721895068692
aF0.6311620990955914
aF0.06022130351059474
aF0.6944992188457483
aF0.5307969460415565
aF0.6989416016954564
aF0.9038258443890377
aF0.4099931916830303
aF0.14681802646464226
aF0.25002287756824615
aF0.4914022393561672
aF0.48036429493834343
aF0.45169332285883645
aF0.842574097858232
aF0.04598407925003645
aF0.7535516976972665
aF0.8468250631248619
aF0.5286025069455741
aI0
aF0.8679229202047375
aF0.4063290126830873
aF0.8106516227766005
aF0.10307882551748548
aF0.7492834355935499
aF0.22904989356350403
aF0.44244994135760873
aF0.3137342131591817
aF0.9420434568819893
aF0.8108710305376252
aF0.8446610939161083
aF0.1443128949190028
aF0.5522889707569374
aF0.7600279012630509
aF0.6822277039300773
aF0.6833004887260508
aF0.31444861136096725
aF0.2723612722164602
aF0.9558687908677073
atp120
Rp121
(dp122
g58
I8
sg43
S'000-008'
p123
sg44
g0
(g51
g5
Ntp124
Rp125
(dp126
g63
(F-0.01071148831397295
tp127
sbsbsI9
g0
(g53
g41
(lp128
F0.45633846411220114
aF0.31550441670394125
aF0.46363608616776597
aF0.3086209926362171
aF0.013001842474000158
aF0.479695830013139
aF0.30240862309421357
aF0.9165722604554994
aF0.3919531148867911
aF0.3953272247666064
aF0.028132711860598292
aF0.19049827858512436
aI1
aI1
aI1
aF0.9373284201625616
aF0.8533281554592619
aF0.3064599033759874
aF0.12908296866898905
aF0.8413429259128087
aF0.3096371515372175
aF0.6618273189040453
aF0.6294721895068692
aF0.6311620990955914
aF0.06022130351059474
aF0.6944992188457483
aF0.5307969460415565
aF0.6989416016954564
aF0.9038258443890377
aF0.4099931916830303
aF0.14681802646464226
aF0.25002287756824615
aF0.4914022393561672
aF0.48036429493834343
aF0.45169332285883645
aF0.842574097858232
aF0.04598407925003645
aF0.7535516976972665
aF0.8468250631248619
aF0.5286025069455741
aI0
aF0.8679229202047375
aF0.4063290126830873
aF0.8106516227766005
aF0.10307882551748548
aF0.7492834355935499
aF0.22904989356350403
aF0.44244994135760873
aF0.3137342131591817
aF0.9420434568819893
aF0.8108710305376252
aF0.8446610939161083
aF0.1443128949190028
aF0.5522889707569374
aF0.7600279012630509
aF0.6822277039300773
aF0.6833004887260508
aF0.31444861136096725
aF0.2723612722164602
aF0.9558687908677073
atp129
Rp130
(dp131
g58
I9
sg43
S'000-009'
p132
sg44
g0
(g51
g5
Ntp133
Rp134
(dp135
g63
(F-0.01071148831397295
tp136
sbsbsI10
g0
(g53
g41
(lp137
F0.45633846411220114
aF0.31550441670394125
aF0.46363608616776597
aF0.3086209926362171
aF0.013001842474000158
aF0.479695830013139
aF0.30240862309421357
aF0.9165722604554994
aF0.3919531148867911
aF0.3953272247666064
aF0.028132711860598292
aF0.19049827858512436
aI1
aI1
aI1
aF0.9373284201625616
aF0.8533281554592619
aF0.3064599033759874
aF0.12908296866898905
aF0.8413429259128087
aF0.3096371515372175
aF0.6618273189040453
aF0.6294721895068692
aF0.6311620990955914
aF0.06022130351059474
aF0.6944992188457483
aF0.5307969460415565
aF0.6989416016954564
aF0.9038258443890377
aF0.4099931916830303
aF0.14681802646464226
aF0.25002287756824615
aF0.4914022393561672
aF0.48036429493834343
aF0.45169332285883645
aF0.842574097858232
aF0.04598407925003645
aF0.7535516976972665
aF0.8468250631248619
aF0.5286025069455741
aI0
aF0.8679229202047375
aF0.4063290126830873
aF0.8106516227766005
aF0.10307882551748548
aF0.7492834355935499
aF0.22904989356350403
aF0.44244994135760873
aF0.3137342131591817
aF0.9420434568819893
aF0.8108710305376252
aF0.8446610939161083
aF0.1443128949190028
aF0.5522889707569374
aF0.7600279012630509
aF0.6822277039300773
aF0.6833004887260508
aF0.31444861136096725
aF0.2723612722164602
aF0.9558687908677073
atp138
Rp139
(dp140
g58
I10
sg43
S'000-010'
p141
sg44
g0
(g51
g5
Ntp142
Rp143
(dp144
g63
(F-0.01071148831397295
tp145
sbsbsI11
g0
(g53
g41
(lp146
F0.45633846411220114
aF0.31550441670394125
aF0.46363608616776597
aF0.3086209926362171
aF0.013001842474000158
aF0.479695830013139
aF0.30240862309421357
aF0.9165722604554994
aF0.3919531148867911
aF0.3953272247666064
aF0.028132711860598292
aF0.19049827858512436
aI1
aI1
aI1
aF0.9373284201625616
aF0.8533281554592619
aF0.3064599033759874
aF0.12908296866898905
aF0.8413429259128087
aF0.3096371515372175
aF0.6618273189040453
aF0.6294721895068692
aF0.6311620990955914
aF0.06022130351059474
aF0.6944992188457483
aF0.5307969460415565
aF0.6989416016954564
aF0.9038258443890377
aF0.4099931916830303
aF0.14681802646464226
aF0.25002287756824615
aF0.4914022393561672
aF0.48036429493834343
aF0.45169332285883645
aF0.842574097858232
aF0.04598407925003645
aF0.7535516976972665
aF0.8468250631248619
aF0.5286025069455741
aI0
aF0.8679229202047375
aF0.4063290126830873
aF0.8106516227766005
aF0.10307882551748548
aF0.7492834355935499
aF0.22904989356350403
aF0.44244994135760873
aF0.3137342131591817
aF0.9420434568819893
aF0.8108710305376252
aF0.8446610939161083
aF0.1443128949190028
aF0.5522889707569374
aF0.7600279012630509
aF0.6822277039300773
aF0.6833004887260508
aF0.31444861136096725
aF0.2723612722164602
aF0.9558687908677073
atp147
Rp148
(dp149
g58
I11
sg43
g59
sg44
g0
(g51
g5
Ntp150
Rp151
(dp152
g63
g64
sbsbsI12
g0
(g53
g41
(lp153
F0.45633846411220114
aF0.31550441670394125
aF0.46363608616776597
aF0.3086209926362171
aF0.013001842474000158
aF0.479695830013139
aF0.30240862309421357
aF0.9165722604554994
aF0.3919531148867911
aF0.3953272247666064
aF0.028132711860598292
aF0.19049827858512436
aI1
aI1
aI1
aF0.9373284201625616
aF0.8533281554592619
aF0.3064599033759874
aF0.12908296866898905
aF0.8413429259128087
aF0.3096371515372175
aF0.6618273189040453
aF0.6294721895068692
aF0.6311620990955914
aF0.06022130351059474
aF0.6944992188457483
aF0.5307969460415565
aF0.6989416016954564
aF0.9038258443890377
aF0.4099931916830303
aF0.14681802646464226
aF0.25002287756824615
aF0.4914022393561672
aF0.48036429493834343
aF0.45169332285883645
aF0.842574097858232
aF0.04598407925003645
aF0.7535516976972665
aF0.8468250631248619
aF0.5286025069455741
aI0
aF0.8679229202047375
aF0.4063290126830873
aF0.8106516227766005
aF0.10307882551748548
aF0.7492834355935499
aF0.22904989356350403
aF0.44244994135760873
aF0.3137342131591817
aF0.9420434568819893
aF0.8108710305376252
aF0.8446610939161083
aF0.1443128949190028
aF0.5522889707569374
aF0.7600279012630509
aF0.6822277039300773
aF0.6833004887260508
aF0.31444861136096725
aF0.2723612722164602
aF0.9558687908677073
atp154
Rp155
(dp156
g58
I12
sg43
g59
sg44
g0
(g51
g5
Ntp157
Rp158
(dp159
g63
g64
sbsbsI13
g0
(g53
g41
(lp160
F0.45633846411220114
aF0.31550441670394125
aF0.46363608616776597
aF0.3086209926362171
aF0.013001842474000158
aF0.479695830013139
aF0.30240862309421357
aF0.9165722604554994
aF0.3919531148867911
aF0.3953272247666064
aF0.028132711860598292
aF0.19049827858512436
aI1
aI1
aI1
aF0.9373284201625616
aF0.8533281554592619
aF0.3064599033759874
aF0.12908296866898905
aF0.8413429259128087
aF0.3096371515372175
aF0.6618273189040453
aF0.6294721895068692
aF0.6311620990955914
aF0.06022130351059474
aF0.6944992188457483
aF0.5307969460415565
aF0.6989416016954564
aF0.9038258443890377
aF0.4099931916830303
aF0.14681802646464226
aF0.25002287756824615
aF0.4914022393561672
aF0.48036429493834343
aF0.45169332285883645
aF0.842574097858232
aF0.04598407925003645
aF0.7535516976972665
aF0.8468250631248619
aF0.5286025069455741
aI0
aF0.8679229202047375
aF0.4063290126830873
aF0.8106516227766005
aF0.10307882551748548
aF0.7492834355935499
aF0.22904989356350403
aF0.44244994135760873
aF0.3137342131591817
aF0.9420434568819893
aF0.8108710305376252
aF0.8446610939161083
aF0.1443128949190028
aF0.5522889707569374
aF0.7600279012630509
aF0.6822277039300773
aF0.6833004887260508
aF0.31444861136096725
aF0.2723612722164602
aF0.9558687908677073
atp161
Rp162
(dp163
g58
I13
sg43
g123
sg44
g0
(g51
g5
Ntp164
Rp165
(dp166
g63
g127
sbsbsI14
g0
(g53
g41
(lp167
F0.45633846411220114
aF0.31550441670394125
aF0.46363608616776597
aF0.3086209926362171
aF0.013001842474000158
aF0.479695830013139
aF0.30240862309421357
aF0.9165722604554994
aF0.3919531148867911
aF0.3953272247666064
aF0.028132711860598292
aF0.19049827858512436
aI1
aI1
aI1
aF0.9373284201625616
aF0.8533281554592619
aF0.3064599033759874
aF0.12908296866898905
aF0.8413429259128087
aF0.3096371515372175
aF0.6618273189040453
aF0.6294721895068692
aF0.6311620990955914
aF0.06022130351059474
aF0.6944992188457483
aF0.5307969460415565
aF0.6989416016954564
aF0.9038258443890377
aF0.4099931916830303
aF0.14681802646464226
aF0.25002287756824615
aF0.4914022393561672
aF0.48036429493834343
aF0.45169332285883645
aF0.842574097858232
aF0.04598407925003645
aF0.7535516976972665
aF0.8468250631248619
aF0.5286025069455741
aI0
aF0.8679229202047375
aF0.4063290126830873
aF0.8106516227766005
aF0.10307882551748548
aF0.7492834355935499
aF0.22904989356350403
aF0.44244994135760873
aF0.3137342131591817
aF0.9420434568819893
aF0.8108710305376252
aF0.8446610939161083
aF0.1443128949190028
aF0.5522889707569374
aF0.7600279012630509
aF0.6822277039300773
aF0.6833004887260508
aF0.31444861136096725
aF0.2723612722164602
aF0.9558687908677073
atp168
Rp169
(dp170
g58
I14
sg43
g78
sg44
g0
(g51
g5
Ntp171
Rp172
(dp173
g63
g82
sbsbsI15
g0
(g53
g41
(lp174
I0
aF0.31550441670394125
aF0.46363608616776597
aF0.3086209926362171
aF0.013001842474000158
aF0.479695830013139
aF0.30240862309421357
aF0.9165722604554994
aF0.3919531148867911
aF0.9652057716053413
aF0.028132711860598292
aF0.19049827858512436
aI1
aI1
aI1
aF0.9373284201625616
aF0.8533281554592619
aF0.3064599033759874
aF0.12908296866898905
aF0.8413429259128087
aF0.3096371515372175
aI1
aI1
aF0.6311620990955914
aF0.06022130351059474
aF0.6944992188457483
aF0.5307969460415565
aF0.6989416016954564
aF0.9038258443890377
aF0.4099931916830303
aF0.14681802646464226
aF0.25002287756824615
aF0.4914022393561672
aF0.48036429493834343
aF0.45169332285883645
aF0.842574097858232
aF0.04598407925003645
aF0.7535516976972665
aF0.8468250631248619
aF0.5286025069455741
aI0
aF0.8679229202047375
aF0.4063290126830873
aF0.8106516227766005
aF0.10307882551748548
aF0.7492834355935499
aF0.22904989356350403
aF0.44244994135760873
aF0.3137342131591817
aF0.9420434568819893
aF0.8108710305376252
aF0.8446610939161083
aF0.1443128949190028
aF0.5522889707569374
aF0.7600279012630509
aF0.6822277039300773
aF0.6833004887260508
aF0.31444861136096725
aF0.2723612722164602
aF0.9558687908677073
atp175
Rp176
(dp177
g58
I15
sg43
g78
sg44
g0
(g51
g5
Ntp178
Rp179
(dp180
g63
g82
sbsbsI16
g0
(g53
g41
(lp181
F0.45633846411220114
aF0.31550441670394125
aF0.46363608616776597
aF0.3086209926362171
aF0.013001842474000158
aF0.479695830013139
aF0.30240862309421357
aF0.9165722604554994
aF0.3919531148867911
aF0.3953272247666064
aF0.028132711860598292
aI0
aI0
aI1
aI1
aF0.9373284201625616
aF0.8533281554592619
aF0.3064599033759874
aF0.12908296866898905
aF0.8413429259128087
aF0.3096371515372175
aF0.6618273189040453
aF0.6294721895068692
aF0.6311620990955914
aF0.06022130351059474
aF0.6944992188457483
aF0.5307969460415565
aF0.6989416016954564
aF0.9038258443890377
aF0.4099931916830303
aF0.14681802646464226
aF0.25002287756824615
aF0.4914022393561672
aF0.48036429493834343
aF0.45169332285883645
aF0.842574097858232
aF0.04598407925003645
aF0.7535516976972665
aF0.8468250631248619
aF0.5286025069455741
aI0
aF0.8679229202047375
aF0.4063290126830873
aF0.8106516227766005
aF0.10307882551748548
aF0.7492834355935499
aF0.22904989356350403
aF0.44244994135760873
aF0.3137342131591817
aF0.9420434568819893
aF0.8108710305376252
aF0.8446610939161083
aF0.1443128949190028
aF0.5522889707569374
aF0.7600279012630509
aF0.6822277039300773
aF0.6833004887260508
aF0.31444861136096725
aF0.2723612722164602
aF0.9558687908677073
atp182
Rp183
(dp184
g58
I16
sg43
g59
sg44
g0
(g51
g5
Ntp185
Rp186
(dp187
g63
(tsbsbsI17
g0
(g53
g41
(lp188
F0.45633846411220114
aF0.31550441670394125
aF0.46363608616776597
aF0.3086209926362171
aF0.013001842474000158
aF0.479695830013139
aF0.30240862309421357
aF0.9165722604554994
aF0.3919531148867911
aF0.3953272247666064
aF0.028132711860598292
aF0.19049827858512436
aI1
aI1
aI1
aF0.9373284201625616
aF0.8533281554592619
aF0.3064599033759874
aF0.12908296866898905
aF0.8413429259128087
aF0.3096371515372175
aF0.6618273189040453
aF0.6294721895068692
aF0.6311620990955914
aF0.06022130351059474
aF0.6944992188457483
aF0.5307969460415565
aF0.6989416016954564
aF0.9038258443890377
aF0.4099931916830303
aF0.14681802646464226
aF0.25002287756824615
aF0.4914022393561672
aF0.48036429493834343
aF0.45169332285883645
aI1
aF0.04598407925003645
aF0.7535516976972665
aF0.8468250631248619
aF0.5286025069455741
aI0
aF0.8679229202047375
aF0.4063290126830873
aF0.8106516227766005
aF0.10307882551748548
aF0.7492834355935499
aF0.22904989356350403
aF0.44244994135760873
aF0.3137342131591817
aF0.9420434568819893
aF0.8108710305376252
aF0.4990640196764029
aF0.1443128949190028
aF0.5522889707569374
aF0.7600279012630509
aF0.6822277039300773
aF0.6833004887260508
aF0.31444861136096725
aI1
aF0.9558687908677073
atp189
Rp190
(dp191
g58
I17
sg43
g59
sg44
g0
(g51
g5
Ntp192
Rp193
(dp194
g63
(tsbsbsI18
g0
(g53
g41
(lp195
F0.45633846411220114
aF0.31550441670394125
aF0.46363608616776597
aF0.3086209926362171
aF0.013001842474000158
aF0.479695830013139
aF0.30240862309421357
aF0.9165722604554994
aF0.3919531148867911
aF0.3953272247666064
aF0.028132711860598292
aF0.19049827858512436
aI1
aI1
aI1
aF0.9373284201625616
aF0.8533281554592619
aF0.3064599033759874
aF0.12908296866898905
aF0.8413429259128087
aF0.3096371515372175
aF0.6618273189040453
aF0.6294721895068692
aF0.6311620990955914
aF0.06022130351059474
aF0.6944992188457483
aF0.5307969460415565
aF0.6989416016954564
aF0.9038258443890377
aI1
aF0.14681802646464226
aF0.25002287756824615
aF0.4914022393561672
aF0.48036429493834343
aF0.45169332285883645
aF0.842574097858232
aF0.04598407925003645
aF0.7535516976972665
aF0.8468250631248619
aF0.5286025069455741
aI0
aF0.8679229202047375
aF0.4063290126830873
aF0.8106516227766005
aF0.10307882551748548
aF0.7492834355935499
aF0.22904989356350403
aF0.44244994135760873
aF0.3137342131591817
aF0.9420434568819893
aF0.8108710305376252
aF0.8446610939161083
aF0.1443128949190028
aI1
aI0
aF0.6822277039300773
aF0.6833004887260508
aF0.31444861136096725
aF0.2723612722164602
aF0.9558687908677073
atp196
Rp197
(dp198
g58
I18
sg43
g114
sg44
g0
(g51
g5
Ntp199
Rp200
(dp201
g63
g118
sbsbsI19
g0
(g53
g41
(lp202
F0.45633846411220114
aF0.31550441670394125
aF0.46363608616776597
aF0.3086209926362171
aF0.013001842474000158
aF0.479695830013139
aF0.30240862309421357
aF0.9165722604554994
aF0.3919531148867911
aF0.3953272247666064
aF0.028132711860598292
aF0.19049827858512436
aI1
aI1
aI1
aF0.9373284201625616
aF0.8533281554592619
aF0.3064599033759874
aF0.12908296866898905
aF0.8413429259128087
aF0.3096371515372175
aF0.6618273189040453
aF0.6294721895068692
aF0.6311620990955914
aF0.06022130351059474
aF0.6944992188457483
aF0.5307969460415565
aF0.6989416016954564
aF0.9038258443890377
aF0.4099931916830303
aF0.14681802646464226
aF0.25002287756824615
aF0.4914022393561672
aF0.48036429493834343
aF0.45169332285883645
aF0.842574097858232
aF0.04598407925003645
aF0.7535516976972665
aF0.8468250631248619
aF0.5286025069455741
aI0
aF0.8679229202047375
aF0.4063290126830873
aF0.8106516227766005
aF0.10307882551748548
aF0.7492834355935499
aF0.22904989356350403
aF0.44244994135760873
aF0.3137342131591817
aF0.9420434568819893
aF0.8108710305376252
aF0.8446610939161083
aF0.1443128949190028
aF0.5522889707569374
aF0.7600279012630509
aF0.6822277039300773
aF0.6833004887260508
aF0.31444861136096725
aF0.2723612722164602
aF0.9558687908677073
atp203
Rp204
(dp205
g58
I19
sg43
S'001-006'
p206
sg44
g0
(g51
g5
Ntp207
Rp208
(dp209
g63
(F-0.01071148831397295
tp210
sbsbsI20
g0
(g53
g41
(lp211
F0.45633846411220114
aF0.31550441670394125
aF0.46363608616776597
aF0.3086209926362171
aF0.013001842474000158
aF0.479695830013139
aF0.30240862309421357
aF0.9165722604554994
aF0.3919531148867911
aF0.3953272247666064
aF0.028132711860598292
aF0.19049827858512436
aI1
aI1
aI1
aF0.9373284201625616
aF0.8533281554592619
aF0.3064599033759874
aF0.12908296866898905
aF0.8413429259128087
aF0.3096371515372175
aF0.6618273189040453
aF0.6294721895068692
aF0.6311620990955914
aF0.06022130351059474
aF0.6944992188457483
aF0.5307969460415565
aF0.6989416016954564
aF0.9038258443890377
aF0.4099931916830303
aF0.14681802646464226
aF0.25002287756824615
aF0.4914022393561672
aF0.48036429493834343
aF0.45169332285883645
aF0.842574097858232
aF0.04598407925003645
aF0.7535516976972665
aF0.8468250631248619
aF0.5286025069455741
aI0
aF0.8679229202047375
aF0.4063290126830873
aF0.8106516227766005
aF0.10307882551748548
aF0.7492834355935499
aF0.22904989356350403
aF0.44244994135760873
aF0.3137342131591817
aF0.9420434568819893
aF0.8108710305376252
aF0.8446610939161083
aF0.1443128949190028
aF0.5522889707569374
aF0.7600279012630509
aF0.6822277039300773
aF0.6833004887260508
aF0.31444861136096725
aF0.2723612722164602
aF0.9558687908677073
atp212
Rp213
(dp214
g58
I20
sg43
g87
sg44
g0
(g51
g5
Ntp215
Rp216
(dp217
g63
g91
sbsbsI21
g0
(g53
g41
(lp218
F0.45633846411220114
aF0.31550441670394125
aF0.46363608616776597
aF0.3086209926362171
aF0.013001842474000158
aF0.479695830013139
aF0.30240862309421357
aF0.9165722604554994
aF0.3919531148867911
aF0.3953272247666064
aF0.028132711860598292
aF0.19049827858512436
aI1
aI1
aI1
aF0.9373284201625616
aF0.8533281554592619
aF0.3064599033759874
aF0.12908296866898905
aF0.8413429259128087
aF0.3096371515372175
aF0.6618273189040453
aF0.6294721895068692
aF0.6311620990955914
aF0.06022130351059474
aF0.6944992188457483
aF0.5307969460415565
aF0.6989416016954564
aF0.9038258443890377
aF0.4099931916830303
aF0.14681802646464226
aF0.25002287756824615
aF0.4914022393561672
aF0.48036429493834343
aF0.45169332285883645
aF0.842574097858232
aF0.04598407925003645
aF0.7535516976972665
aF0.8468250631248619
aF0.5286025069455741
aI0
aF0.8679229202047375
aF0.4063290126830873
aF0.8106516227766005
aF0.10307882551748548
aF0.7492834355935499
aF0.22904989356350403
aF0.44244994135760873
aF0.3137342131591817
aF0.9420434568819893
aF0.8108710305376252
aF0.8446610939161083
aF0.1443128949190028
aF0.5522889707569374
aF0.7600279012630509
aF0.6822277039300773
aF0.6833004887260508
aF0.31444861136096725
aF0.2723612722164602
aF0.9558687908677073
atp219
Rp220
(dp221
g58
I21
sg43
g87
sg44
g0
(g51
g5
Ntp222
Rp223
(dp224
g63
g91
sbsbsI22
g0
(g53
g41
(lp225
F0.45633846411220114
aF0.31550441670394125
aF0.46363608616776597
aF0.3086209926362171
aF0.013001842474000158
aF0.479695830013139
aF0.30240862309421357
aF0.9165722604554994
aF0.3919531148867911
aF0.3953272247666064
aF0.028132711860598292
aF0.19049827858512436
aI1
aI1
aI1
aF0.9373284201625616
aF0.8533281554592619
aF0.3064599033759874
aF0.12908296866898905
aF0.8413429259128087
aF0.3096371515372175
aF0.6618273189040453
aF0.6294721895068692
aF0.6311620990955914
aF0.06022130351059474
aF0.6944992188457483
aF0.5307969460415565
aF0.6989416016954564
aF0.9038258443890377
aF0.4099931916830303
aF0.14681802646464226
aF0.25002287756824615
aF0.4914022393561672
aF0.48036429493834343
aF0.45169332285883645
aF0.842574097858232
aF0.04598407925003645
aF0.7535516976972665
aF0.8468250631248619
aF0.5286025069455741
aI0
aF0.8679229202047375
aF0.4063290126830873
aF0.8106516227766005
aF0.10307882551748548
aF0.7492834355935499
aF0.22904989356350403
aF0.44244994135760873
aF0.3137342131591817
aF0.9420434568819893
aF0.8108710305376252
aF0.8446610939161083
aF0.1443128949190028
aF0.5522889707569374
aF0.7600279012630509
aF0.6822277039300773
aF0.6833004887260508
aF0.31444861136096725
aF0.2723612722164602
aF0.9558687908677073
atp226
Rp227
(dp228
g58
I22
sg43
S'001-005'
p229
sg44
g0
(g51
g5
Ntp230
Rp231
(dp232
g63
(F-0.01071148831397295
tp233
sbsbsI23
g0
(g53
g41
(lp234
F0.45633846411220114
aF0.31550441670394125
aF0.46363608616776597
aF0.3086209926362171
aF0.013001842474000158
aF0.479695830013139
aF0.30240862309421357
aF0.9165722604554994
aF0.3919531148867911
aF0.3953272247666064
aF0.028132711860598292
aF0.19049827858512436
aI1
aI1
aI1
aF0.9373284201625616
aF0.8533281554592619
aF0.3064599033759874
aF0.12908296866898905
aF0.8413429259128087
aF0.3096371515372175
aF0.6618273189040453
aF0.6294721895068692
aF0.6311620990955914
aF0.06022130351059474
aF0.6944992188457483
aF0.5307969460415565
aF0.6989416016954564
aF0.9038258443890377
aF0.4099931916830303
aF0.14681802646464226
aF0.25002287756824615
aF0.4914022393561672
aF0.48036429493834343
aF0.45169332285883645
aF0.842574097858232
aF0.04598407925003645
aF0.7535516976972665
aF0.8468250631248619
aF0.5286025069455741
aI0
aF0.8679229202047375
aF0.4063290126830873
aF0.8106516227766005
aF0.10307882551748548
aF0.7492834355935499
aF0.22904989356350403
aF0.44244994135760873
aF0.3137342131591817
aF0.9420434568819893
aF0.8108710305376252
aF0.8446610939161083
aF0.1443128949190028
aF0.5522889707569374
aF0.7600279012630509
aF0.6822277039300773
aF0.6833004887260508
aF0.31444861136096725
aF0.2723612722164602
aF0.9558687908677073
atp235
Rp236
(dp237
g58
I23
sg43
g229
sg44
g0
(g51
g5
Ntp238
Rp239
(dp240
g63
g233
sbsbsI24
g0
(g53
g41
(lp241
F0.45633846411220114
aF0.31550441670394125
aF0.46363608616776597
aF0.3086209926362171
aF0.013001842474000158
aF0.479695830013139
aF0.30240862309421357
aF0.9165722604554994
aF0.3919531148867911
aF0.3953272247666064
aF0.028132711860598292
aF0.19049827858512436
aI1
aI1
aI1
aF0.9373284201625616
aF0.8533281554592619
aF0.3064599033759874
aF0.12908296866898905
aF0.8413429259128087
aF0.3096371515372175
aF0.6618273189040453
aF0.6294721895068692
aF0.6311620990955914
aF0.06022130351059474
aF0.6944992188457483
aF0.5307969460415565
aF0.6989416016954564
aF0.9038258443890377
aF0.4099931916830303
aF0.14681802646464226
aF0.25002287756824615
aF0.4914022393561672
aF0.48036429493834343
aF0.45169332285883645
aF0.842574097858232
aF0.04598407925003645
aF0.7535516976972665
aF0.8468250631248619
aF0.5286025069455741
aI0
aF0.8679229202047375
aF0.4063290126830873
aF0.8106516227766005
aF0.10307882551748548
aF0.7492834355935499
aF0.22904989356350403
aF0.44244994135760873
aF0.3137342131591817
aF0.9420434568819893
aF0.8108710305376252
aF0.8446610939161083
aF0.1443128949190028
aF0.5522889707569374
aF0.7600279012630509
aF0.6822277039300773
aF0.6833004887260508
aF0.31444861136096725
aF0.2723612722164602
aF0.9558687908677073
atp242
Rp243
(dp244
g58
I24
sg43
g229
sg44
g0
(g51
g5
Ntp245
Rp246
(dp247
g63
g233
sbsbsI25
g0
(g53
g41
(lp248
F0.45633846411220114
aF0.31550441670394125
aF0.46363608616776597
aF0.3086209926362171
aF0.013001842474000158
aF0.479695830013139
aF0.30240862309421357
aF0.9165722604554994
aF0.3919531148867911
aF0.3953272247666064
aF0.028132711860598292
aF0.19049827858512436
aI1
aI1
aI1
aF0.9373284201625616
aF0.8533281554592619
aF0.3064599033759874
aF0.12908296866898905
aF0.8413429259128087
aF0.3096371515372175
aF0.6618273189040453
aF0.6294721895068692
aF0.6311620990955914
aF0.06022130351059474
aF0.6944992188457483
aF0.5307969460415565
aF0.6989416016954564
aF0.9038258443890377
aF0.4099931916830303
aF0.14681802646464226
aF0.25002287756824615
aF0.4914022393561672
aF0.48036429493834343
aF0.45169332285883645
aF0.842574097858232
aF0.04598407925003645
aF0.7535516976972665
aF0.8468250631248619
aF0.5286025069455741
aI0
aF0.8679229202047375
aF0.4063290126830873
aF0.8106516227766005
aF0.10307882551748548
aF0.7492834355935499
aF0.22904989356350403
aF0.44244994135760873
aF0.3137342131591817
aF0.9420434568819893
aF0.8108710305376252
aF0.8446610939161083
aF0.1443128949190028
aF0.5522889707569374
aF0.7600279012630509
aF0.6822277039300773
aF0.6833004887260508
aF0.31444861136096725
aF0.2723612722164602
aF0.9558687908677073
atp249
Rp250
(dp251
g58
I25
sg43
g206
sg44
g0
(g51
g5
Ntp252
Rp253
(dp254
g63
g210
sbsbsI26
g0
(g53
g41
(lp255
F0.45633846411220114
aF0.31550441670394125
aF0.46363608616776597
aF0.3086209926362171
aF0.013001842474000158
aF0.479695830013139
aF0.30240862309421357
aF0.9165722604554994
aF0.3919531148867911
aF0.3953272247666064
aF0.028132711860598292
aF0.19049827858512436
aI1
aI1
aI1
aF0.9373284201625616
aF0.8533281554592619
aF0.3064599033759874
aF0.12908296866898905
aF0.8413429259128087
aF0.3096371515372175
aF0.6618273189040453
aF0.6294721895068692
aF0.6311620990955914
aF0.06022130351059474
aF0.6944992188457483
aF0.5307969460415565
aF0.6989416016954564
aF0.9038258443890377
aF0.4099931916830303
aF0.14681802646464226
aF0.25002287756824615
aF0.4914022393561672
aF0.48036429493834343
aF0.45169332285883645
aF0.842574097858232
aF0.04598407925003645
aF0.7535516976972665
aF0.8468250631248619
aF0.5286025069455741
aI0
aF0.8679229202047375
aF0.4063290126830873
aF0.8106516227766005
aF0.10307882551748548
aF0.7492834355935499
aF0.22904989356350403
aF0.44244994135760873
aF0.3137342131591817
aF0.9420434568819893
aF0.8108710305376252
aF0.8446610939161083
aF0.1443128949190028
aF0.5522889707569374
aF0.7600279012630509
aF0.6822277039300773
aF0.6833004887260508
aF0.31444861136096725
aF0.2723612722164602
aF0.9558687908677073
atp256
Rp257
(dp258
g58
I26
sg43
g141
sg44
g0
(g51
g5
Ntp259
Rp260
(dp261
g63
g145
sbsbsI27
g0
(g53
g41
(lp262
F0.45633846411220114
aF0.31550441670394125
aF0.46363608616776597
aF0.3086209926362171
aF0.013001842474000158
aF0.479695830013139
aF0.30240862309421357
aF0.9165722604554994
aF0.3919531148867911
aF0.3953272247666064
aF0.028132711860598292
aF0.19049827858512436
aI1
aI1
aI1
aF0.9373284201625616
aF0.8533281554592619
aF0.3064599033759874
aF0.12908296866898905
aF0.8413429259128087
aF0.3096371515372175
aF0.6618273189040453
aF0.6294721895068692
aF0.6311620990955914
aF0.06022130351059474
aF0.6944992188457483
aF0.5307969460415565
aF0.6989416016954564
aF0.9038258443890377
aF0.4099931916830303
aF0.14681802646464226
aF0.25002287756824615
aF0.4914022393561672
aF0.48036429493834343
aF0.45169332285883645
aF0.842574097858232
aF0.04598407925003645
aF0.7535516976972665
aF0.8468250631248619
aF0.5286025069455741
aI0
aF0.8679229202047375
aF0.4063290126830873
aF0.8106516227766005
aF0.10307882551748548
aF0.7492834355935499
aF0.22904989356350403
aF0.44244994135760873
aF0.3137342131591817
aF0.9420434568819893
aF0.8108710305376252
aF0.8446610939161083
aF0.1443128949190028
aF0.5522889707569374
aF0.7600279012630509
aF0.6822277039300773
aF0.6833004887260508
aF0.31444861136096725
aF0.2723612722164602
aF0.9558687908677073
atp263
Rp264
(dp265
g58
I27
sg43
g229
sg44
g0
(g51
g5
Ntp266
Rp267
(dp268
g63
g233
sbsbsI28
g0
(g53
g41
(lp269
F0.45633846411220114
aF0.31550441670394125
aF0.46363608616776597
aF0.3086209926362171
aF0.013001842474000158
aF0.479695830013139
aF0.30240862309421357
aF0.9165722604554994
aF0.3919531148867911
aF0.3953272247666064
aF0.028132711860598292
aF0.19049827858512436
aI1
aI1
aI1
aF0.9373284201625616
aF0.8533281554592619
aF0.3064599033759874
aF0.12908296866898905
aF0.8413429259128087
aF0.3096371515372175
aF0.6618273189040453
aF0.6294721895068692
aF0.6311620990955914
aF0.06022130351059474
aF0.6944992188457483
aF0.5307969460415565
aF0.6989416016954564
aF0.9038258443890377
aF0.4099931916830303
aF0.14681802646464226
aF0.25002287756824615
aF0.4914022393561672
aF0.48036429493834343
aF0.45169332285883645
aF0.842574097858232
aF0.04598407925003645
aF0.7535516976972665
aF0.8468250631248619
aF0.5286025069455741
aI0
aF0.8679229202047375
aF0.4063290126830873
aF0.8106516227766005
aF0.10307882551748548
aF0.7492834355935499
aF0.22904989356350403
aF0.44244994135760873
aF0.3137342131591817
aF0.9420434568819893
aF0.8108710305376252
aF0.8446610939161083
aF0.1443128949190028
aF0.5522889707569374
aF0.7600279012630509
aF0.6822277039300773
aF0.6833004887260508
aF0.31444861136096725
aF0.2723612722164602
aF0.9558687908677073
atp270
Rp271
(dp272
g58
I28
sg43
g229
sg44
g0
(g51
g5
Ntp273
Rp274
(dp275
g63
g233
sbsbsI29
g0
(g53
g41
(lp276
F0.45633846411220114
aF0.31550441670394125
aF0.46363608616776597
aF0.3086209926362171
aF0.013001842474000158
aF0.479695830013139
aF0.30240862309421357
aF0.9165722604554994
aF0.3919531148867911
aF0.3953272247666064
aF0.028132711860598292
aF0.19049827858512436
aI1
aI1
aI1
aF0.9373284201625616
aF0.8533281554592619
aF0.3064599033759874
aF0.12908296866898905
aF0.8413429259128087
aF0.3096371515372175
aF0.6618273189040453
aF0.6294721895068692
aF0.6311620990955914
aF0.06022130351059474
aF0.6944992188457483
aF0.5307969460415565
aF0.6989416016954564
aF0.9038258443890377
aF0.4099931916830303
aF0.14681802646464226
aF0.25002287756824615
aF0.4914022393561672
aF0.48036429493834343
aF0.45169332285883645
aF0.842574097858232
aF0.04598407925003645
aF0.7535516976972665
aF0.8468250631248619
aF0.5286025069455741
aI0
aF0.8679229202047375
aF0.4063290126830873
aF0.8106516227766005
aF0.10307882551748548
aF0.7492834355935499
aF0.22904989356350403
aF0.44244994135760873
aF0.3137342131591817
aF0.9420434568819893
aF0.8108710305376252
aF0.8446610939161083
aF0.1443128949190028
aF0.5522889707569374
aF0.7600279012630509
aF0.6822277039300773
aF0.6833004887260508
aF0.31444861136096725
aF0.2723612722164602
aF0.9558687908677073
atp277
Rp278
(dp279
g58
I29
sg43
S'002-010'
p280
sg44
g0
(g51
g5
Ntp281
Rp282
(dp283
g63
(F-0.01071148831397295
tp284
sbsbsI30
g0
(g53
g41
(lp285
F0.45633846411220114
aF0.31550441670394125
aF0.46363608616776597
aF0.3086209926362171
aF0.013001842474000158
aF0.479695830013139
aF0.30240862309421357
aF0.9165722604554994
aF0.3919531148867911
aF0.3953272247666064
aF0.028132711860598292
aF0.19049827858512436
aI1
aI1
aI1
aF0.9373284201625616
aF0.8533281554592619
aF0.3064599033759874
aF0.12908296866898905
aF0.8413429259128087
aF0.3096371515372175
aF0.6618273189040453
aF0.6294721895068692
aF0.6311620990955914
aF0.06022130351059474
aF0.6944992188457483
aF0.5307969460415565
aF0.6989416016954564
aF0.9038258443890377
aF0.4099931916830303
aF0.14681802646464226
aF0.25002287756824615
aF0.4914022393561672
aF0.48036429493834343
aF0.45169332285883645
aF0.842574097858232
aF0.04598407925003645
aF0.7535516976972665
aF0.8468250631248619
aF0.5286025069455741
aI0
aF0.8679229202047375
aF0.4063290126830873
aF0.8106516227766005
aF0.10307882551748548
aF0.7492834355935499
aF0.22904989356350403
aF0.44244994135760873
aF0.3137342131591817
aF0.9420434568819893
aF0.8108710305376252
aF0.8446610939161083
aF0.1443128949190028
aF0.5522889707569374
aF0.7600279012630509
aF0.6822277039300773
aF0.6833004887260508
aF0.31444861136096725
aF0.2723612722164602
aF0.9558687908677073
atp286
Rp287
(dp288
g58
I30
sg43
S'002-003'
p289
sg44
g0
(g51
g5
Ntp290
Rp291
(dp292
g63
(F-0.01071148831397295
tp293
sbsbsI31
g0
(g53
g41
(lp294
F0.45633846411220114
aF0.31550441670394125
aF0.46363608616776597
aF0.3086209926362171
aF0.013001842474000158
aF0.479695830013139
aF0.30240862309421357
aF0.9165722604554994
aF0.3919531148867911
aF0.3953272247666064
aF0.028132711860598292
aF0.19049827858512436
aI1
aI1
aI1
aF0.9373284201625616
aF0.8533281554592619
aF0.3064599033759874
aF0.12908296866898905
aF0.8413429259128087
aF0.3096371515372175
aF0.6618273189040453
aF0.6294721895068692
aF0.6311620990955914
aF0.06022130351059474
aF0.6944992188457483
aF0.5307969460415565
aF0.6989416016954564
aF0.9038258443890377
aF0.4099931916830303
aF0.14681802646464226
aF0.25002287756824615
aF0.4914022393561672
aF0.48036429493834343
aF0.45169332285883645
aF0.842574097858232
aF0.04598407925003645
aF0.7535516976972665
aF0.8468250631248619
aF0.5286025069455741
aI0
aF0.8679229202047375
aF0.4063290126830873
aF0.8106516227766005
aF0.10307882551748548
aF0.7492834355935499
aF0.22904989356350403
aF0.44244994135760873
aF0.3137342131591817
aF0.9420434568819893
aF0.8108710305376252
aF0.8446610939161083
aF0.1443128949190028
aF0.5522889707569374
aF0.7600279012630509
aF0.6822277039300773
aF0.6833004887260508
aF0.31444861136096725
aF0.2723612722164602
aF0.9558687908677073
atp295
Rp296
(dp297
g58
I31
sg43
g289
sg44
g0
(g51
g5
Ntp298
Rp299
(dp300
g63
g293
sbsbsI32
g0
(g53
g41
(lp301
F0.45633846411220114
aF0.31550441670394125
aF0.46363608616776597
aF0.3086209926362171
aF0.013001842474000158
aF0.479695830013139
aF0.30240862309421357
aF0.9165722604554994
aF0.3919531148867911
aF0.3953272247666064
aF0.028132711860598292
aF0.19049827858512436
aI1
aI1
aI1
aF0.9373284201625616
aF0.8533281554592619
aF0.3064599033759874
aF0.12908296866898905
aF0.8413429259128087
aF0.3096371515372175
aF0.6618273189040453
aF0.6294721895068692
aF0.6311620990955914
aF0.06022130351059474
aF0.6944992188457483
aF0.5307969460415565
aF0.6989416016954564
aF0.9038258443890377
aF0.4099931916830303
aF0.14681802646464226
aF0.25002287756824615
aF0.4914022393561672
aF0.48036429493834343
aF0.45169332285883645
aF0.842574097858232
aF0.04598407925003645
aF0.7535516976972665
aF0.8468250631248619
aF0.5286025069455741
aI0
aF0.8679229202047375
aF0.4063290126830873
aF0.8106516227766005
aF0.10307882551748548
aF0.7492834355935499
aF0.22904989356350403
aF0.44244994135760873
aF0.3137342131591817
aF0.9420434568819893
aF0.8108710305376252
aF0.8446610939161083
aF0.1443128949190028
aF0.5522889707569374
aF0.7600279012630509
aF0.6822277039300773
aF0.6833004887260508
aF0.31444861136096725
aF0.2723612722164602
aF0.9558687908677073
atp302
Rp303
(dp304
g58
I32
sg43
S'002-006'
p305
sg44
g0
(g51
g5
Ntp306
Rp307
(dp308
g63
(F-0.01071148831397295
tp309
sbsbsI33
g0
(g53
g41
(lp310
F0.45633846411220114
aF0.31550441670394125
aF0.46363608616776597
aF0.3086209926362171
aF0.013001842474000158
aF0.479695830013139
aF0.30240862309421357
aF0.9165722604554994
aF0.3919531148867911
aF0.3953272247666064
aF0.028132711860598292
aF0.19049827858512436
aI1
aI1
aI1
aF0.9373284201625616
aF0.8533281554592619
aF0.3064599033759874
aF0.12908296866898905
aF0.8413429259128087
aF0.3096371515372175
aF0.6618273189040453
aF0.6294721895068692
aF0.6311620990955914
aF0.06022130351059474
aF0.6944992188457483
aF0.5307969460415565
aF0.6989416016954564
aF0.9038258443890377
aF0.4099931916830303
aF0.14681802646464226
aF0.25002287756824615
aF0.4914022393561672
aF0.48036429493834343
aF0.45169332285883645
aF0.842574097858232
aF0.04598407925003645
aF0.7535516976972665
aF0.8468250631248619
aF0.5286025069455741
aI0
aF0.8679229202047375
aF0.4063290126830873
aF0.8106516227766005
aF0.10307882551748548
aF0.7492834355935499
aF0.22904989356350403
aF0.44244994135760873
aF0.3137342131591817
aF0.9420434568819893
aF0.8108710305376252
aF0.8446610939161083
aF0.1443128949190028
aF0.5522889707569374
aF0.7600279012630509
aF0.6822277039300773
aF0.6833004887260508
aF0.31444861136096725
aF0.2723612722164602
aF0.9558687908677073
atp311
Rp312
(dp313
g58
I33
sg43
S'002-009'
p314
sg44
g0
(g51
g5
Ntp315
Rp316
(dp317
g63
(F-0.01071148831397295
tp318
sbsbsI34
g0
(g53
g41
(lp319
F0.45633846411220114
aF0.31550441670394125
aF0.46363608616776597
aF0.3086209926362171
aF0.013001842474000158
aF0.479695830013139
aF0.30240862309421357
aF0.9165722604554994
aF0.3919531148867911
aF0.3953272247666064
aF0.028132711860598292
aF0.19049827858512436
aI1
aI1
aI1
aF0.9373284201625616
aF0.8533281554592619
aF0.3064599033759874
aF0.12908296866898905
aF0.8413429259128087
aF0.3096371515372175
aF0.6618273189040453
aF0.6294721895068692
aF0.6311620990955914
aF0.06022130351059474
aF0.6944992188457483
aF0.5307969460415565
aF0.6989416016954564
aF0.9038258443890377
aF0.4099931916830303
aF0.14681802646464226
aF0.25002287756824615
aF0.4914022393561672
aF0.48036429493834343
aF0.45169332285883645
aF0.842574097858232
aF0.04598407925003645
aF0.7535516976972665
aF0.8468250631248619
aF0.5286025069455741
aI0
aF0.8679229202047375
aF0.4063290126830873
aF0.8106516227766005
aF0.10307882551748548
aF0.7492834355935499
aF0.22904989356350403
aF0.44244994135760873
aF0.3137342131591817
aF0.9420434568819893
aF0.8108710305376252
aF0.8446610939161083
aF0.1443128949190028
aF0.5522889707569374
aF0.7600279012630509
aF0.6822277039300773
aF0.6833004887260508
aF0.31444861136096725
aF0.2723612722164602
aF0.9558687908677073
atp320
Rp321
(dp322
g58
I34
sg43
S'002-002'
p323
sg44
g0
(g51
g5
Ntp324
Rp325
(dp326
g63
(F-0.01071148831397295
tp327
sbsbsI35
g0
(g53
g41
(lp328
F0.45633846411220114
aF0.31550441670394125
aF0.46363608616776597
aF0.3086209926362171
aF0.013001842474000158
aF0.479695830013139
aF0.30240862309421357
aF0.9165722604554994
aF0.3919531148867911
aF0.3953272247666064
aF0.028132711860598292
aF0.19049827858512436
aI1
aI1
aI1
aF0.9373284201625616
aF0.8533281554592619
aF0.3064599033759874
aF0.12908296866898905
aF0.8413429259128087
aF0.3096371515372175
aF0.6618273189040453
aF0.6294721895068692
aF0.6311620990955914
aF0.06022130351059474
aF0.6944992188457483
aF0.5307969460415565
aF0.6989416016954564
aF0.9038258443890377
aF0.4099931916830303
aF0.14681802646464226
aF0.25002287756824615
aF0.4914022393561672
aF0.48036429493834343
aF0.45169332285883645
aF0.842574097858232
aF0.04598407925003645
aF0.7535516976972665
aF0.8468250631248619
aF0.5286025069455741
aI0
aF0.8679229202047375
aF0.4063290126830873
aF0.8106516227766005
aF0.10307882551748548
aF0.7492834355935499
aF0.22904989356350403
aF0.44244994135760873
aF0.3137342131591817
aF0.9420434568819893
aF0.8108710305376252
aF0.8446610939161083
aF0.1443128949190028
aF0.5522889707569374
aF0.7600279012630509
aF0.6822277039300773
aF0.6833004887260508
aF0.31444861136096725
aF0.2723612722164602
aF0.9558687908677073
atp329
Rp330
(dp331
g58
I35
sg43
S'002-007'
p332
sg44
g0
(g51
g5
Ntp333
Rp334
(dp335
g63
(F-0.01071148831397295
tp336
sbsbsI36
g0
(g53
g41
(lp337
F0.45633846411220114
aF0.31550441670394125
aF0.46363608616776597
aF0.3086209926362171
aF0.013001842474000158
aF0.479695830013139
aF0.30240862309421357
aF0.9165722604554994
aF0.3919531148867911
aF0.3953272247666064
aF0.028132711860598292
aF0.19049827858512436
aI1
aI1
aI1
aF0.9373284201625616
aF0.8533281554592619
aF0.3064599033759874
aF0.12908296866898905
aF0.8413429259128087
aF0.3096371515372175
aF0.6618273189040453
aF0.6294721895068692
aF0.6311620990955914
aF0.06022130351059474
aF0.6944992188457483
aF0.5307969460415565
aF0.6989416016954564
aF0.9038258443890377
aF0.4099931916830303
aF0.14681802646464226
aF0.25002287756824615
aF0.4914022393561672
aF0.48036429493834343
aF0.45169332285883645
aF0.842574097858232
aF0.04598407925003645
aF0.7535516976972665
aF0.8468250631248619
aF0.5286025069455741
aI0
aF0.8679229202047375
aF0.4063290126830873
aF0.8106516227766005
aF0.10307882551748548
aF0.7492834355935499
aF0.22904989356350403
aF0.44244994135760873
aF0.3137342131591817
aF0.9420434568819893
aF0.8108710305376252
aF0.8446610939161083
aF0.1443128949190028
aF0.5522889707569374
aF0.7600279012630509
aF0.6822277039300773
aF0.6833004887260508
aF0.31444861136096725
aF0.2723612722164602
aF0.9558687908677073
atp338
Rp339
(dp340
g58
I36
sg43
S'003-003'
p341
sg44
g0
(g51
g5
Ntp342
Rp343
(dp344
g63
(F-0.01071148831397295
tp345
sbsbsI37
g0
(g53
g41
(lp346
F0.45633846411220114
aF0.31550441670394125
aF0.46363608616776597
aF0.3086209926362171
aF0.013001842474000158
aF0.479695830013139
aF0.30240862309421357
aF0.9165722604554994
aF0.3919531148867911
aF0.3953272247666064
aF0.028132711860598292
aF0.19049827858512436
aI1
aI1
aI1
aF0.9373284201625616
aF0.8533281554592619
aF0.3064599033759874
aF0.12908296866898905
aF0.8413429259128087
aF0.3096371515372175
aF0.6618273189040453
aF0.6294721895068692
aF0.6311620990955914
aF0.06022130351059474
aF0.6944992188457483
aF0.5307969460415565
aF0.6989416016954564
aF0.9038258443890377
aF0.4099931916830303
aF0.14681802646464226
aF0.25002287756824615
aF0.4914022393561672
aF0.48036429493834343
aF0.45169332285883645
aF0.842574097858232
aF0.04598407925003645
aF0.7535516976972665
aF0.8468250631248619
aF0.5286025069455741
aI0
aF0.8679229202047375
aF0.4063290126830873
aF0.8106516227766005
aF0.10307882551748548
aF0.7492834355935499
aF0.22904989356350403
aF0.44244994135760873
aF0.3137342131591817
aF0.9420434568819893
aF0.8108710305376252
aF0.8446610939161083
aF0.1443128949190028
aF0.5522889707569374
aF0.7600279012630509
aF0.6822277039300773
aF0.6833004887260508
aF0.31444861136096725
aF0.2723612722164602
aF0.9558687908677073
atp347
Rp348
(dp349
g58
I37
sg43
g332
sg44
g0
(g51
g5
Ntp350
Rp351
(dp352
g63
g336
sbsbsI38
g0
(g53
g41
(lp353
F0.45633846411220114
aF0.31550441670394125
aF0.46363608616776597
aF0.3086209926362171
aF0.013001842474000158
aF0.479695830013139
aF0.30240862309421357
aF0.9165722604554994
aF0.3919531148867911
aF0.3953272247666064
aF0.028132711860598292
aF0.19049827858512436
aI1
aI1
aI1
aF0.9373284201625616
aF0.8533281554592619
aF0.3064599033759874
aF0.12908296866898905
aF0.8413429259128087
aF0.3096371515372175
aF0.6618273189040453
aF0.6294721895068692
aF0.6311620990955914
aF0.06022130351059474
aF0.6944992188457483
aF0.5307969460415565
aF0.6989416016954564
aF0.9038258443890377
aF0.4099931916830303
aF0.14681802646464226
aF0.25002287756824615
aF0.4914022393561672
aF0.48036429493834343
aF0.45169332285883645
aF0.842574097858232
aF0.04598407925003645
aF0.7535516976972665
aF0.8468250631248619
aF0.5286025069455741
aI0
aF0.8679229202047375
aF0.4063290126830873
aF0.8106516227766005
aF0.10307882551748548
aF0.7492834355935499
aF0.22904989356350403
aF0.44244994135760873
aF0.3137342131591817
aF0.9420434568819893
aF0.8108710305376252
aF0.8446610939161083
aF0.1443128949190028
aF0.5522889707569374
aF0.7600279012630509
aF0.6822277039300773
aF0.6833004887260508
aF0.31444861136096725
aF0.2723612722164602
aF0.9558687908677073
atp354
Rp355
(dp356
g58
I38
sg43
S'003-002'
p357
sg44
g0
(g51
g5
Ntp358
Rp359
(dp360
g63
(F-0.01071148831397295
tp361
sbsbsI39
g0
(g53
g41
(lp362
F0.45633846411220114
aF0.31550441670394125
aF0.46363608616776597
aF0.3086209926362171
aF0.013001842474000158
aF0.479695830013139
aF0.30240862309421357
aF0.9165722604554994
aF0.3919531148867911
aF0.3953272247666064
aF0.028132711860598292
aF0.19049827858512436
aI1
aI1
aI1
aF0.9373284201625616
aF0.8533281554592619
aF0.3064599033759874
aF0.12908296866898905
aF0.8413429259128087
aF0.3096371515372175
aF0.6618273189040453
aF0.6294721895068692
aF0.6311620990955914
aF0.06022130351059474
aF0.6944992188457483
aF0.5307969460415565
aF0.6989416016954564
aF0.9038258443890377
aF0.4099931916830303
aF0.14681802646464226
aF0.25002287756824615
aF0.4914022393561672
aF0.48036429493834343
aF0.45169332285883645
aF0.842574097858232
aF0.04598407925003645
aF0.7535516976972665
aF0.8468250631248619
aF0.5286025069455741
aI0
aF0.8679229202047375
aF0.4063290126830873
aF0.8106516227766005
aF0.10307882551748548
aF0.7492834355935499
aF0.22904989356350403
aF0.44244994135760873
aF0.3137342131591817
aF0.9420434568819893
aF0.8108710305376252
aF0.8446610939161083
aF0.1443128949190028
aF0.5522889707569374
aF0.7600279012630509
aF0.6822277039300773
aF0.6833004887260508
aF0.31444861136096725
aF0.2723612722164602
aF0.9558687908677073
atp363
Rp364
(dp365
g58
I39
sg43
g332
sg44
g0
(g51
g5
Ntp366
Rp367
(dp368
g63
g336
sbsbsI40
g0
(g53
g41
(lp369
F0.45633846411220114
aF0.31550441670394125
aF0.46363608616776597
aF0.3086209926362171
aF0.013001842474000158
aF0.479695830013139
aF0.30240862309421357
aF0.9165722604554994
aF0.3919531148867911
aF0.3953272247666064
aF0.028132711860598292
aF0.19049827858512436
aI1
aI1
aI1
aF0.9373284201625616
aF0.8533281554592619
aF0.3064599033759874
aF0.12908296866898905
aF0.8413429259128087
aF0.3096371515372175
aF0.6618273189040453
aF0.6294721895068692
aF0.6311620990955914
aF0.06022130351059474
aF0.6944992188457483
aF0.5307969460415565
aF0.6989416016954564
aF0.9038258443890377
aF0.4099931916830303
aF0.14681802646464226
aF0.25002287756824615
aF0.4914022393561672
aF0.48036429493834343
aF0.45169332285883645
aF0.842574097858232
aF0.04598407925003645
aF0.7535516976972665
aF0.8468250631248619
aF0.5286025069455741
aI0
aF0.8679229202047375
aF0.4063290126830873
aF0.8106516227766005
aF0.10307882551748548
aF0.7492834355935499
aF0.22904989356350403
aF0.44244994135760873
aF0.3137342131591817
aF0.9420434568819893
aF0.8108710305376252
aF0.8446610939161083
aF0.1443128949190028
aF0.5522889707569374
aF0.7600279012630509
aF0.6822277039300773
aF0.6833004887260508
aF0.31444861136096725
aF0.2723612722164602
aF0.9558687908677073
atp370
Rp371
(dp372
g58
I40
sg43
g280
sg44
g0
(g51
g5
Ntp373
Rp374
(dp375
g63
g284
sbsbsI41
g0
(g53
g41
(lp376
F0.45633846411220114
aF0.31550441670394125
aF0.46363608616776597
aF0.3086209926362171
aF0.013001842474000158
aF0.479695830013139
aF0.30240862309421357
aF0.9165722604554994
aF0.3919531148867911
aF0.3953272247666064
aI0
aF0.19049827858512436
aI1
aI1
aI1
aF0.9373284201625616
aI1
aF0.3064599033759874
aF0.12908296866898905
aF0.8413429259128087
aF0.3096371515372175
aF0.6618273189040453
aF0.6294721895068692
aF0.6311620990955914
aF0.06022130351059474
aF0.6944992188457483
aF0.5307969460415565
aF0.6989416016954564
aF0.9038258443890377
aF0.4099931916830303
aF0.14681802646464226
aF0.25002287756824615
aF0.4914022393561672
aF0.48036429493834343
aF0.45169332285883645
aF0.842574097858232
aF0.04598407925003645
aF0.7535516976972665
aF0.8468250631248619
aF0.5286025069455741
aI0
aF0.8679229202047375
aF0.4063290126830873
aF0.8106516227766005
aF0.10307882551748548
aI0
aF0.22904989356350403
aF0.44244994135760873
aI0
aF0.9420434568819893
aF0.8108710305376252
aF0.8446610939161083
aF0.1443128949190028
aF0.5522889707569374
aF0.7600279012630509
aF0.6822277039300773
aF0.6833004887260508
aF0.31444861136096725
aF0.2723612722164602
aF0.9558687908677073
atp377
Rp378
(dp379
g58
I41
sg43
g341
sg44
g0
(g51
g5
Ntp380
Rp381
(dp382
g63
(tsbsbsI42
g0
(g53
g41
(lp383
F0.45633846411220114
aF0.31550441670394125
aF0.46363608616776597
aF0.3086209926362171
aF0.013001842474000158
aF0.479695830013139
aF0.30240862309421357
aF0.9165722604554994
aF0.3919531148867911
aF0.3953272247666064
aF0.4638115235435571
aF0.19049827858512436
aI1
aI1
aI1
aF0.9373284201625616
aF0.8533281554592619
aF0.3064599033759874
aF0.12908296866898905
aF0.8413429259128087
aF0.3096371515372175
aF0.6618273189040453
aF0.6294721895068692
aF0.6311620990955914
aF0.06022130351059474
aF0.6944992188457483
aF0.5307969460415565
aF0.6989416016954564
aI0
aF0.4099931916830303
aF0.14681802646464226
aF0.25002287756824615
aF0.4914022393561672
aF0.48036429493834343
aF0.45169332285883645
aF0.842574097858232
aF0.04598407925003645
aF0.7535516976972665
aF0.8468250631248619
aF0.5286025069455741
aI0
aF0.8679229202047375
aF0.4063290126830873
aF0.8106516227766005
aF0.10307882551748548
aF0.7492834355935499
aF0.22904989356350403
aF0.44244994135760873
aF0.3137342131591817
aF0.9420434568819893
aF0.8108710305376252
aF0.8446610939161083
aF0.1443128949190028
aF0.5522889707569374
aF0.7600279012630509
aI1
aF0.6833004887260508
aF0.31444861136096725
aF0.2723612722164602
aF0.9558687908677073
atp384
Rp385
(dp386
g58
I42
sg43
g357
sg44
g0
(g51
g5
Ntp387
Rp388
(dp389
g63
(tsbsbsI43
g0
(g53
g41
(lp390
F0.45633846411220114
aF0.31550441670394125
aF0.46363608616776597
aF0.3086209926362171
aF0.013001842474000158
aF0.479695830013139
aF0.30240862309421357
aF0.9165722604554994
aF0.3919531148867911
aF0.3953272247666064
aF0.028132711860598292
aF0.19049827858512436
aI1
aI1
aI1
aF0.9373284201625616
aF0.8533281554592619
aF0.3064599033759874
aF0.12908296866898905
aF0.8413429259128087
aF0.3096371515372175
aF0.6618273189040453
aF0.6294721895068692
aF0.6311620990955914
aF0.06022130351059474
aF0.6944992188457483
aF0.5307969460415565
aI0
aF0.9038258443890377
aF0.4099931916830303
aF0.14681802646464226
aF0.25002287756824615
aF0.4914022393561672
aF0.48036429493834343
aF0.45169332285883645
aF0.842574097858232
aF0.04598407925003645
aF0.7535516976972665
aF0.8468250631248619
aF0.5286025069455741
aI0
aF0.8679229202047375
aF0.4063290126830873
aF0.8106516227766005
aF0.10307882551748548
aF0.7492834355935499
aF0.22904989356350403
aF0.44244994135760873
aF0.3137342131591817
aF0.21660852480543946
aF0.8108710305376252
aF0.8446610939161083
aF0.1443128949190028
aF0.5522889707569374
aF0.7600279012630509
aF0.6822277039300773
aF0.5947692786617204
aF0.31444861136096725
aF0.2723612722164602
aF0.9558687908677073
atp391
Rp392
(dp393
g58
I43
sg43
g280
sg44
g0
(g51
g5
Ntp394
Rp395
(dp396
g63
(tsbsbsI44
g0
(g53
g41
(lp397
F0.45633846411220114
aF0.31550441670394125
aF0.46363608616776597
aF0.3086209926362171
aF0.013001842474000158
aF0.479695830013139
aF0.30240862309421357
aF0.9165722604554994
aF0.3919531148867911
aF0.3953272247666064
aF0.028132711860598292
aF0.19049827858512436
aI1
aI1
aI1
aF0.9373284201625616
aF0.8533281554592619
aF0.3064599033759874
aF0.12908296866898905
aF0.8413429259128087
aF0.3096371515372175
aF0.6618273189040453
aF0.6294721895068692
aF0.6311620990955914
aF0.06022130351059474
aF0.6944992188457483
aF0.5307969460415565
aF0.6989416016954564
aF0.9038258443890377
aF0.4099931916830303
aF0.14681802646464226
aF0.25002287756824615
aF0.4914022393561672
aF0.48036429493834343
aF0.45169332285883645
aF0.842574097858232
aF0.04598407925003645
aF0.7535516976972665
aF0.8468250631248619
aF0.5286025069455741
aI0
aF0.8679229202047375
aF0.4063290126830873
aF0.8106516227766005
aF0.10307882551748548
aF0.7492834355935499
aF0.22904989356350403
aF0.44244994135760873
aF0.3137342131591817
aF0.9420434568819893
aF0.8108710305376252
aF0.8446610939161083
aF0.1443128949190028
aF0.5522889707569374
aF0.7600279012630509
aF0.6822277039300773
aF0.6833004887260508
aF0.31444861136096725
aF0.2723612722164602
aF0.9558687908677073
atp398
Rp399
(dp400
g58
I44
sg43
S'004-002'
p401
sg44
g0
(g51
g5
Ntp402
Rp403
(dp404
g63
(F-0.01071148831397295
tp405
sbsbsI45
g0
(g53
g41
(lp406
F0.45633846411220114
aF0.31550441670394125
aF0.46363608616776597
aF0.3086209926362171
aF0.013001842474000158
aF0.479695830013139
aF0.30240862309421357
aF0.9165722604554994
aF0.3919531148867911
aF0.3953272247666064
aF0.028132711860598292
aF0.19049827858512436
aI1
aI1
aI1
aF0.9373284201625616
aF0.8533281554592619
aF0.3064599033759874
aF0.12908296866898905
aF0.8413429259128087
aF0.3096371515372175
aF0.6618273189040453
aF0.6294721895068692
aF0.6311620990955914
aF0.06022130351059474
aF0.6944992188457483
aF0.5307969460415565
aF0.6989416016954564
aF0.9038258443890377
aF0.4099931916830303
aF0.14681802646464226
aF0.25002287756824615
aF0.4914022393561672
aF0.48036429493834343
aF0.45169332285883645
aF0.842574097858232
aF0.04598407925003645
aF0.7535516976972665
aF0.8468250631248619
aF0.5286025069455741
aI0
aF0.8679229202047375
aF0.4063290126830873
aF0.8106516227766005
aF0.10307882551748548
aF0.7492834355935499
aF0.22904989356350403
aF0.44244994135760873
aF0.3137342131591817
aF0.9420434568819893
aF0.8108710305376252
aF0.8446610939161083
aF0.1443128949190028
aF0.5522889707569374
aF0.7600279012630509
aF0.6822277039300773
aF0.6833004887260508
aF0.31444861136096725
aF0.2723612722164602
aF0.9558687908677073
atp407
Rp408
(dp409
g58
I45
sg43
S'004-001'
p410
sg44
g0
(g51
g5
Ntp411
Rp412
(dp413
g63
(F-0.01071148831397295
tp414
sbsbsI46
g0
(g53
g41
(lp415
F0.45633846411220114
aF0.31550441670394125
aF0.46363608616776597
aF0.3086209926362171
aF0.013001842474000158
aF0.479695830013139
aF0.30240862309421357
aF0.9165722604554994
aF0.3919531148867911
aF0.3953272247666064
aF0.028132711860598292
aF0.19049827858512436
aI1
aI1
aI1
aF0.9373284201625616
aF0.8533281554592619
aF0.3064599033759874
aF0.12908296866898905
aF0.8413429259128087
aF0.3096371515372175
aF0.6618273189040453
aF0.6294721895068692
aF0.6311620990955914
aF0.06022130351059474
aF0.6944992188457483
aF0.5307969460415565
aF0.6989416016954564
aF0.9038258443890377
aF0.4099931916830303
aF0.14681802646464226
aF0.25002287756824615
aF0.4914022393561672
aF0.48036429493834343
aF0.45169332285883645
aF0.842574097858232
aF0.04598407925003645
aF0.7535516976972665
aF0.8468250631248619
aF0.5286025069455741
aI0
aF0.8679229202047375
aF0.4063290126830873
aF0.8106516227766005
aF0.10307882551748548
aF0.7492834355935499
aF0.22904989356350403
aF0.44244994135760873
aF0.3137342131591817
aF0.9420434568819893
aF0.8108710305376252
aF0.8446610939161083
aF0.1443128949190028
aF0.5522889707569374
aF0.7600279012630509
aF0.6822277039300773
aF0.6833004887260508
aF0.31444861136096725
aF0.2723612722164602
aF0.9558687908677073
atp416
Rp417
(dp418
g58
I46
sg43
g401
sg44
g0
(g51
g5
Ntp419
Rp420
(dp421
g63
g405
sbsbsI47
g0
(g53
g41
(lp422
F0.45633846411220114
aF0.31550441670394125
aF0.46363608616776597
aF0.3086209926362171
aF0.013001842474000158
aF0.479695830013139
aF0.30240862309421357
aF0.9165722604554994
aF0.3919531148867911
aF0.3953272247666064
aF0.028132711860598292
aF0.19049827858512436
aI1
aI1
aI1
aF0.9373284201625616
aF0.8533281554592619
aF0.3064599033759874
aF0.12908296866898905
aF0.8413429259128087
aF0.3096371515372175
aF0.6618273189040453
aF0.6294721895068692
aF0.6311620990955914
aF0.06022130351059474
aF0.6944992188457483
aF0.5307969460415565
aF0.6989416016954564
aF0.9038258443890377
aF0.4099931916830303
aF0.14681802646464226
aF0.25002287756824615
aF0.4914022393561672
aF0.48036429493834343
aF0.45169332285883645
aF0.842574097858232
aF0.04598407925003645
aF0.7535516976972665
aF0.8468250631248619
aF0.5286025069455741
aI0
aF0.8679229202047375
aF0.4063290126830873
aF0.8106516227766005
aF0.10307882551748548
aF0.7492834355935499
aF0.22904989356350403
aF0.44244994135760873
aF0.3137342131591817
aF0.9420434568819893
aF0.8108710305376252
aF0.8446610939161083
aF0.1443128949190028
aF0.5522889707569374
aF0.7600279012630509
aF0.6822277039300773
aF0.6833004887260508
aF0.31444861136096725
aF0.2723612722164602
aF0.9558687908677073
atp423
Rp424
(dp425
g58
I47
sg43
g341
sg44
g0
(g51
g5
Ntp426
Rp427
(dp428
g63
g345
sbsbsI48
g0
(g53
g41
(lp429
F0.45633846411220114
aF0.31550441670394125
aF0.46363608616776597
aF0.3086209926362171
aF0.013001842474000158
aF0.479695830013139
aF0.30240862309421357
aF0.9165722604554994
aF0.3919531148867911
aF0.3953272247666064
aF0.028132711860598292
aF0.19049827858512436
aI1
aI1
aI1
aF0.9373284201625616
aF0.8533281554592619
aF0.3064599033759874
aF0.12908296866898905
aF0.8413429259128087
aF0.5128881608508155
aF0.6618273189040453
aF0.6294721895068692
aF0.6311620990955914
aF0.4644197626327657
aF0.6944992188457483
aF0.5307969460415565
aF0.6989416016954564
aF0.9038258443890377
aF0.4099931916830303
aI0
aF0.25002287756824615
aF0.4914022393561672
aF0.48036429493834343
aF0.45169332285883645
aF0.842574097858232
aF0.04598407925003645
aF0.7535516976972665
aF0.8468250631248619
aF0.5286025069455741
aI0
aF0.8679229202047375
aF0.4063290126830873
aF0.8106516227766005
aF0.10307882551748548
aF0.7492834355935499
aF0.22904989356350403
aF0.44244994135760873
aF0.3137342131591817
aF0.9420434568819893
aF0.8108710305376252
aF0.8446610939161083
aF0.1443128949190028
aF0.5522889707569374
aF0.7600279012630509
aF0.6822277039300773
aF0.6833004887260508
aF0.31444861136096725
aF0.2723612722164602
aF0.9558687908677073
atp430
Rp431
(dp432
g58
I48
sg43
g357
sg44
g0
(g51
g5
Ntp433
Rp434
(dp435
g63
g361
sbsbssb.