ccopy_reg
_reconstructor
p0
(cdeap.tools.support
History
p1
cdill.dill
_load_type
p2
(S'ObjectType'
p3
tp4
Rp5
Ntp6
Rp7
(dp8
S'genealogy_tree'
p9
(dp10
I1
(tsI2
(tsI3
(tsI4
(tsI5
(tsI6
(tsI7
(tsI8
(tsI9
(tsI10
(tsI11
(tsI12
(tsI13
(tsI14
(tsI15
(tsI16
(tsI17
(tsI18
(tsI19
(tsI20
(tsI21
(tsI22
(tsI23
(tsI24
(tsI25
(tsI26
(tsI27
(tsI28
(tsI29
(tsI30
(tsI31
(tsI32
(tsI33
(tsI34
(tsI35
(tsI36
(tsI37
(tsI38
(tsI39
(tsI40
(tsI41
(tsI42
(tsI43
(tsI44
(tsI45
(tsI46
(tsI47
(tsI48
(tsI49
(tsI50
(tssS'genealogy_index'
p11
I50
sS'genealogy_history'
p12
(dp13
I1
g0
(cdeap.creator
meta_creator
p14
(S'Individual'
p15
g2
(S'ListType'
p16
tp17
Rp18
(dp19
S'ID'
p20
NsS'fitness'
p21
g14
(S'FitnessMin'
p22
cdeap.base
Fitness
p23
(dp24
S'weights'
p25
(F-1.0
tp26
stp27
Rp28
stp29
Rp30
g18
(lp31
F0.9779824383164536
aF0.7515375788719578
aF0.7561781958356316
aF0.09229008083174195
aF0.33995830970210594
aF0.5721906500722429
aF0.3511067493228047
aF0.6509239885960971
aF0.544991678514162
aF0.42817688033689727
aF0.003311608895722906
aF0.0013731729877423104
aF0.04617021374280783
aF0.3344004211359771
aF0.2853867415188168
aF0.7073611029498671
aF0.0038817007837623763
aI1
aF0.7730933885192107
aF0.4440699130585216
aF0.6592597182584303
aF0.23361498731402375
aF0.23952522422852618
aF0.9669970443742493
aF0.6339615234401424
aF0.7565321266326525
aF0.91107688178239
aF0.5498625752509245
aF0.14354639054881957
aF0.5619141254344711
aF0.265342164550751
aF0.8388175118700822
aF0.9833903769482164
aF0.6738865808786272
aF0.6512650328409254
aF0.48294223798710256
aF0.1387200612693189
aF0.835554709948788
aF0.7616316635809282
aF0.8761737970962242
aF0.8073516959290817
aF0.6500170828702859
aF0.545937736597017
aF0.0903070476678971
aF0.8384340490931849
aF0.4027936354380143
aF0.9040846305130404
aF0.6706760952081714
aF0.10916150320625617
aF0.44045909514999704
aF0.8820290337054798
aI1
aF0.5144085699395398
aF0.3623494602223487
aF0.943016125320638
aF0.49577216384219935
aF0.9805736093380334
aF0.07995228377027219
aF0.6416106711725467
aF0.5839094314738595
atp32
Rp33
(dp34
S'history_index'
p35
I1
sg20
S'000-001'
p36
sg21
g0
(g28
g5
Ntp37
Rp38
(dp39
S'wvalues'
p40
(F-4.691964626312256
tp41
sbsbsI2
g0
(g30
g18
(lp42
F0.9779824383164536
aF0.7515375788719578
aF0.7561781958356316
aF0.09229008083174195
aF0.33995830970210594
aF0.5721906500722429
aF0.3511067493228047
aF0.6509239885960971
aF0.544991678514162
aF0.42817688033689727
aF0.003311608895722906
aF0.0013731729877423104
aF0.04617021374280783
aF0.3344004211359771
aF0.2853867415188168
aF0.7073611029498671
aF0.0038817007837623763
aI1
aF0.7730933885192107
aF0.4440699130585216
aF0.6592597182584303
aF0.23361498731402375
aF0.23952522422852618
aF0.9669970443742493
aF0.6339615234401424
aF0.7565321266326525
aF0.91107688178239
aF0.5498625752509245
aF0.14354639054881957
aF0.5619141254344711
aF0.265342164550751
aF0.8388175118700822
aF0.9833903769482164
aF0.6738865808786272
aF0.6512650328409254
aF0.48294223798710256
aF0.1387200612693189
aF0.835554709948788
aF0.7616316635809282
aF0.8761737970962242
aF0.8073516959290817
aF0.6500170828702859
aF0.545937736597017
aF0.0903070476678971
aF0.8384340490931849
aF0.4027936354380143
aF0.9040846305130404
aF0.6706760952081714
aF0.10916150320625617
aF0.44045909514999704
aF0.8820290337054798
aI1
aF0.5144085699395398
aF0.3623494602223487
aF0.943016125320638
aF0.49577216384219935
aF0.9805736093380334
aF0.07995228377027219
aF0.6416106711725467
aF0.5839094314738595
atp43
Rp44
(dp45
g35
I2
sg20
S'000-002'
p46
sg21
g0
(g28
g5
Ntp47
Rp48
(dp49
g40
(F-4.691964626312256
tp50
sbsbsI3
g0
(g30
g18
(lp51
F0.9779824383164536
aF0.7515375788719578
aF0.7561781958356316
aF0.09229008083174195
aF0.33995830970210594
aF0.5721906500722429
aF0.3511067493228047
aF0.6509239885960971
aF0.544991678514162
aF0.42817688033689727
aF0.003311608895722906
aF0.0013731729877423104
aF0.04617021374280783
aF0.3344004211359771
aF0.2853867415188168
aF0.7073611029498671
aF0.0038817007837623763
aI1
aF0.7730933885192107
aF0.4440699130585216
aF0.6592597182584303
aF0.23361498731402375
aF0.23952522422852618
aF0.9669970443742493
aF0.6339615234401424
aF0.7565321266326525
aF0.91107688178239
aF0.5498625752509245
aF0.14354639054881957
aF0.5619141254344711
aF0.265342164550751
aF0.8388175118700822
aF0.9833903769482164
aF0.6738865808786272
aF0.6512650328409254
aF0.48294223798710256
aF0.1387200612693189
aF0.835554709948788
aF0.7616316635809282
aF0.8761737970962242
aF0.8073516959290817
aF0.6500170828702859
aF0.545937736597017
aF0.0903070476678971
aF0.8384340490931849
aF0.4027936354380143
aF0.9040846305130404
aF0.6706760952081714
aF0.10916150320625617
aF0.44045909514999704
aF0.8820290337054798
aI1
aF0.5144085699395398
aF0.3623494602223487
aF0.943016125320638
aF0.49577216384219935
aF0.9805736093380334
aF0.07995228377027219
aF0.6416106711725467
aF0.5839094314738595
atp52
Rp53
(dp54
g35
I3
sg20
S'000-003'
p55
sg21
g0
(g28
g5
Ntp56
Rp57
(dp58
g40
(F-4.691964626312256
tp59
sbsbsI4
g0
(g30
g18
(lp60
F0.9779824383164536
aF0.7515375788719578
aF0.7561781958356316
aF0.09229008083174195
aF0.33995830970210594
aF0.5721906500722429
aF0.3511067493228047
aF0.6509239885960971
aF0.544991678514162
aF0.42817688033689727
aF0.003311608895722906
aF0.0013731729877423104
aF0.04617021374280783
aF0.3344004211359771
aF0.2853867415188168
aF0.7073611029498671
aF0.0038817007837623763
aI1
aF0.7730933885192107
aF0.4440699130585216
aF0.6592597182584303
aF0.23361498731402375
aF0.23952522422852618
aF0.9669970443742493
aF0.6339615234401424
aF0.7565321266326525
aF0.91107688178239
aF0.5498625752509245
aF0.14354639054881957
aF0.5619141254344711
aF0.265342164550751
aF0.8388175118700822
aF0.9833903769482164
aF0.6738865808786272
aF0.6512650328409254
aF0.48294223798710256
aF0.1387200612693189
aF0.835554709948788
aF0.7616316635809282
aF0.8761737970962242
aF0.8073516959290817
aF0.6500170828702859
aF0.545937736597017
aF0.0903070476678971
aF0.8384340490931849
aF0.4027936354380143
aF0.9040846305130404
aF0.6706760952081714
aF0.10916150320625617
aF0.44045909514999704
aF0.8820290337054798
aI1
aF0.5144085699395398
aF0.3623494602223487
aF0.943016125320638
aF0.49577216384219935
aF0.9805736093380334
aF0.07995228377027219
aF0.6416106711725467
aF0.5839094314738595
atp61
Rp62
(dp63
g35
I4
sg20
S'000-004'
p64
sg21
g0
(g28
g5
Ntp65
Rp66
(dp67
g40
(F-4.691964626312256
tp68
sbsbsI5
g0
(g30
g18
(lp69
F0.9779824383164536
aF0.7515375788719578
aF0.7561781958356316
aF0.09229008083174195
aF0.33995830970210594
aF0.5721906500722429
aF0.3511067493228047
aF0.6509239885960971
aF0.544991678514162
aF0.42817688033689727
aF0.003311608895722906
aF0.0013731729877423104
aF0.04617021374280783
aF0.3344004211359771
aF0.2853867415188168
aF0.7073611029498671
aF0.0038817007837623763
aI1
aF0.7730933885192107
aF0.4440699130585216
aF0.6592597182584303
aF0.23361498731402375
aF0.23952522422852618
aF0.9669970443742493
aF0.6339615234401424
aF0.7565321266326525
aF0.91107688178239
aF0.5498625752509245
aF0.14354639054881957
aF0.5619141254344711
aF0.265342164550751
aF0.8388175118700822
aF0.9833903769482164
aF0.6738865808786272
aF0.6512650328409254
aF0.48294223798710256
aF0.1387200612693189
aF0.835554709948788
aF0.7616316635809282
aF0.8761737970962242
aF0.8073516959290817
aF0.6500170828702859
aF0.545937736597017
aF0.0903070476678971
aF0.8384340490931849
aF0.4027936354380143
aF0.9040846305130404
aF0.6706760952081714
aF0.10916150320625617
aF0.44045909514999704
aF0.8820290337054798
aI1
aF0.5144085699395398
aF0.3623494602223487
aF0.943016125320638
aF0.49577216384219935
aF0.9805736093380334
aF0.07995228377027219
aF0.6416106711725467
aF0.5839094314738595
atp70
Rp71
(dp72
g35
I5
sg20
S'000-005'
p73
sg21
g0
(g28
g5
Ntp74
Rp75
(dp76
g40
(F-4.691964626312256
tp77
sbsbsI6
g0
(g30
g18
(lp78
F0.9779824383164536
aF0.7515375788719578
aF0.7561781958356316
aF0.09229008083174195
aF0.33995830970210594
aF0.5721906500722429
aF0.3511067493228047
aF0.6509239885960971
aF0.544991678514162
aF0.42817688033689727
aF0.003311608895722906
aF0.0013731729877423104
aF0.04617021374280783
aF0.3344004211359771
aF0.2853867415188168
aF0.7073611029498671
aF0.0038817007837623763
aI1
aF0.7730933885192107
aF0.4440699130585216
aF0.6592597182584303
aF0.23361498731402375
aF0.23952522422852618
aF0.9669970443742493
aF0.6339615234401424
aF0.7565321266326525
aF0.91107688178239
aF0.5498625752509245
aF0.14354639054881957
aF0.5619141254344711
aF0.265342164550751
aF0.8388175118700822
aF0.9833903769482164
aF0.6738865808786272
aF0.6512650328409254
aF0.48294223798710256
aF0.1387200612693189
aF0.835554709948788
aF0.7616316635809282
aF0.8761737970962242
aF0.8073516959290817
aF0.6500170828702859
aF0.545937736597017
aF0.0903070476678971
aF0.8384340490931849
aF0.4027936354380143
aF0.9040846305130404
aF0.6706760952081714
aF0.10916150320625617
aF0.44045909514999704
aF0.8820290337054798
aI1
aF0.5144085699395398
aF0.3623494602223487
aF0.943016125320638
aF0.49577216384219935
aF0.9805736093380334
aF0.07995228377027219
aF0.6416106711725467
aF0.5839094314738595
atp79
Rp80
(dp81
g35
I6
sg20
S'000-006'
p82
sg21
g0
(g28
g5
Ntp83
Rp84
(dp85
g40
(F-4.691964626312256
tp86
sbsbsI7
g0
(g30
g18
(lp87
F0.9779824383164536
aF0.7515375788719578
aF0.7561781958356316
aF0.09229008083174195
aF0.33995830970210594
aF0.5721906500722429
aF0.3511067493228047
aF0.6509239885960971
aF0.544991678514162
aF0.42817688033689727
aF0.003311608895722906
aF0.0013731729877423104
aF0.04617021374280783
aF0.3344004211359771
aF0.2853867415188168
aF0.7073611029498671
aF0.0038817007837623763
aI1
aF0.7730933885192107
aF0.4440699130585216
aF0.6592597182584303
aF0.23361498731402375
aF0.23952522422852618
aF0.9669970443742493
aF0.6339615234401424
aF0.7565321266326525
aF0.91107688178239
aF0.5498625752509245
aF0.14354639054881957
aF0.5619141254344711
aF0.265342164550751
aF0.8388175118700822
aF0.9833903769482164
aF0.6738865808786272
aF0.6512650328409254
aF0.48294223798710256
aF0.1387200612693189
aF0.835554709948788
aF0.7616316635809282
aF0.8761737970962242
aF0.8073516959290817
aF0.6500170828702859
aF0.545937736597017
aF0.0903070476678971
aF0.8384340490931849
aF0.4027936354380143
aF0.9040846305130404
aF0.6706760952081714
aF0.10916150320625617
aF0.44045909514999704
aF0.8820290337054798
aI1
aF0.5144085699395398
aF0.3623494602223487
aF0.943016125320638
aF0.49577216384219935
aF0.9805736093380334
aF0.07995228377027219
aF0.6416106711725467
aF0.5839094314738595
atp88
Rp89
(dp90
g35
I7
sg20
S'000-007'
p91
sg21
g0
(g28
g5
Ntp92
Rp93
(dp94
g40
(F-4.691964626312256
tp95
sbsbsI8
g0
(g30
g18
(lp96
F0.9779824383164536
aF0.7515375788719578
aF0.7561781958356316
aF0.09229008083174195
aF0.33995830970210594
aF0.5721906500722429
aF0.3511067493228047
aF0.6509239885960971
aF0.544991678514162
aF0.42817688033689727
aF0.003311608895722906
aF0.0013731729877423104
aF0.04617021374280783
aF0.3344004211359771
aF0.2853867415188168
aF0.7073611029498671
aF0.0038817007837623763
aI1
aF0.7730933885192107
aF0.4440699130585216
aF0.6592597182584303
aF0.23361498731402375
aF0.23952522422852618
aF0.9669970443742493
aF0.6339615234401424
aF0.7565321266326525
aF0.91107688178239
aF0.5498625752509245
aF0.14354639054881957
aF0.5619141254344711
aF0.265342164550751
aF0.8388175118700822
aF0.9833903769482164
aF0.6738865808786272
aF0.6512650328409254
aF0.48294223798710256
aF0.1387200612693189
aF0.835554709948788
aF0.7616316635809282
aF0.8761737970962242
aF0.8073516959290817
aF0.6500170828702859
aF0.545937736597017
aF0.0903070476678971
aF0.8384340490931849
aF0.4027936354380143
aF0.9040846305130404
aF0.6706760952081714
aF0.10916150320625617
aF0.44045909514999704
aF0.8820290337054798
aI1
aF0.5144085699395398
aF0.3623494602223487
aF0.943016125320638
aF0.49577216384219935
aF0.9805736093380334
aF0.07995228377027219
aF0.6416106711725467
aF0.5839094314738595
atp97
Rp98
(dp99
g35
I8
sg20
S'000-008'
p100
sg21
g0
(g28
g5
Ntp101
Rp102
(dp103
g40
(F-4.691964626312256
tp104
sbsbsI9
g0
(g30
g18
(lp105
F0.9779824383164536
aF0.7515375788719578
aF0.7561781958356316
aF0.09229008083174195
aF0.33995830970210594
aF0.5721906500722429
aF0.3511067493228047
aF0.6509239885960971
aF0.544991678514162
aF0.42817688033689727
aF0.003311608895722906
aF0.0013731729877423104
aF0.04617021374280783
aF0.3344004211359771
aF0.2853867415188168
aF0.7073611029498671
aF0.0038817007837623763
aI1
aF0.7730933885192107
aF0.4440699130585216
aF0.6592597182584303
aF0.23361498731402375
aF0.23952522422852618
aF0.9669970443742493
aF0.6339615234401424
aF0.7565321266326525
aF0.91107688178239
aF0.5498625752509245
aF0.14354639054881957
aF0.5619141254344711
aF0.265342164550751
aF0.8388175118700822
aF0.9833903769482164
aF0.6738865808786272
aF0.6512650328409254
aF0.48294223798710256
aF0.1387200612693189
aF0.835554709948788
aF0.7616316635809282
aF0.8761737970962242
aF0.8073516959290817
aF0.6500170828702859
aF0.545937736597017
aF0.0903070476678971
aF0.8384340490931849
aF0.4027936354380143
aF0.9040846305130404
aF0.6706760952081714
aF0.10916150320625617
aF0.44045909514999704
aF0.8820290337054798
aI1
aF0.5144085699395398
aF0.3623494602223487
aF0.943016125320638
aF0.49577216384219935
aF0.9805736093380334
aF0.07995228377027219
aF0.6416106711725467
aF0.5839094314738595
atp106
Rp107
(dp108
g35
I9
sg20
S'000-009'
p109
sg21
g0
(g28
g5
Ntp110
Rp111
(dp112
g40
(F-4.691964626312256
tp113
sbsbsI10
g0
(g30
g18
(lp114
F0.9779824383164536
aF0.7515375788719578
aF0.7561781958356316
aF0.09229008083174195
aF0.33995830970210594
aF0.5721906500722429
aF0.3511067493228047
aF0.6509239885960971
aF0.544991678514162
aF0.42817688033689727
aF0.003311608895722906
aF0.0013731729877423104
aF0.04617021374280783
aF0.3344004211359771
aF0.2853867415188168
aF0.7073611029498671
aF0.0038817007837623763
aI1
aF0.7730933885192107
aF0.4440699130585216
aF0.6592597182584303
aF0.23361498731402375
aF0.23952522422852618
aF0.9669970443742493
aF0.6339615234401424
aF0.7565321266326525
aF0.91107688178239
aF0.5498625752509245
aF0.14354639054881957
aF0.5619141254344711
aF0.265342164550751
aF0.8388175118700822
aF0.9833903769482164
aF0.6738865808786272
aF0.6512650328409254
aF0.48294223798710256
aF0.1387200612693189
aF0.835554709948788
aF0.7616316635809282
aF0.8761737970962242
aF0.8073516959290817
aF0.6500170828702859
aF0.545937736597017
aF0.0903070476678971
aF0.8384340490931849
aF0.4027936354380143
aF0.9040846305130404
aF0.6706760952081714
aF0.10916150320625617
aF0.44045909514999704
aF0.8820290337054798
aI1
aF0.5144085699395398
aF0.3623494602223487
aF0.943016125320638
aF0.49577216384219935
aF0.9805736093380334
aF0.07995228377027219
aF0.6416106711725467
aF0.5839094314738595
atp115
Rp116
(dp117
g35
I10
sg20
S'000-010'
p118
sg21
g0
(g28
g5
Ntp119
Rp120
(dp121
g40
(F-4.691964626312256
tp122
sbsbsI11
g0
(g30
g18
(lp123
F0.9779824383164536
aF0.7515375788719578
aF0.7561781958356316
aF0.09229008083174195
aF0.33995830970210594
aF0.5721906500722429
aF0.3511067493228047
aF0.6509239885960971
aF0.544991678514162
aF0.42817688033689727
aF0.003311608895722906
aF0.0013731729877423104
aF0.04617021374280783
aF0.3344004211359771
aF0.2853867415188168
aF0.7073611029498671
aF0.0038817007837623763
aI1
aF0.7730933885192107
aF0.4440699130585216
aF0.6592597182584303
aF0.23361498731402375
aF0.23952522422852618
aF0.9669970443742493
aF0.6339615234401424
aF0.7565321266326525
aF0.91107688178239
aF0.5498625752509245
aF0.14354639054881957
aF0.5619141254344711
aF0.265342164550751
aF0.8388175118700822
aF0.9833903769482164
aF0.6738865808786272
aF0.6512650328409254
aF0.48294223798710256
aF0.1387200612693189
aF0.835554709948788
aF0.7616316635809282
aF0.8761737970962242
aF0.8073516959290817
aF0.6500170828702859
aF0.545937736597017
aF0.0903070476678971
aF0.8384340490931849
aF0.4027936354380143
aF0.9040846305130404
aF0.6706760952081714
aF0.10916150320625617
aF0.44045909514999704
aF0.8820290337054798
aI1
aF0.5144085699395398
aF0.3623494602223487
aF0.943016125320638
aF0.49577216384219935
aF0.9805736093380334
aF0.07995228377027219
aF0.6416106711725467
aF0.5839094314738595
atp124
Rp125
(dp126
g35
I11
sg20
S'000-011'
p127
sg21
g0
(g28
g5
Ntp128
Rp129
(dp130
g40
(F-4.691964626312256
tp131
sbsbsI12
g0
(g30
g18
(lp132
F0.9779824383164536
aF0.7515375788719578
aF0.7561781958356316
aF0.09229008083174195
aF0.33995830970210594
aF0.5721906500722429
aF0.3511067493228047
aF0.6509239885960971
aF0.544991678514162
aF0.42817688033689727
aF0.003311608895722906
aF0.0013731729877423104
aF0.04617021374280783
aF0.3344004211359771
aF0.2853867415188168
aF0.7073611029498671
aF0.0038817007837623763
aI1
aF0.7730933885192107
aF0.4440699130585216
aF0.6592597182584303
aF0.23361498731402375
aF0.23952522422852618
aF0.9669970443742493
aF0.6339615234401424
aF0.7565321266326525
aF0.91107688178239
aF0.5498625752509245
aF0.14354639054881957
aF0.5619141254344711
aF0.265342164550751
aF0.8388175118700822
aF0.9833903769482164
aF0.6738865808786272
aF0.6512650328409254
aF0.48294223798710256
aF0.1387200612693189
aF0.835554709948788
aF0.7616316635809282
aF0.8761737970962242
aF0.8073516959290817
aF0.6500170828702859
aF0.545937736597017
aF0.0903070476678971
aF0.8384340490931849
aF0.4027936354380143
aF0.9040846305130404
aF0.6706760952081714
aF0.10916150320625617
aF0.44045909514999704
aF0.8820290337054798
aI1
aF0.5144085699395398
aF0.3623494602223487
aF0.943016125320638
aF0.49577216384219935
aF0.9805736093380334
aF0.07995228377027219
aF0.6416106711725467
aF0.5839094314738595
atp133
Rp134
(dp135
g35
I12
sg20
S'000-012'
p136
sg21
g0
(g28
g5
Ntp137
Rp138
(dp139
g40
(F-4.691964626312256
tp140
sbsbsI13
g0
(g30
g18
(lp141
F0.9779824383164536
aF0.7515375788719578
aF0.7561781958356316
aF0.09229008083174195
aF0.33995830970210594
aF0.5721906500722429
aF0.3511067493228047
aF0.6509239885960971
aF0.544991678514162
aF0.42817688033689727
aF0.003311608895722906
aF0.0013731729877423104
aF0.04617021374280783
aF0.3344004211359771
aF0.2853867415188168
aF0.7073611029498671
aF0.0038817007837623763
aI1
aF0.7730933885192107
aF0.4440699130585216
aF0.6592597182584303
aF0.23361498731402375
aF0.23952522422852618
aF0.9669970443742493
aF0.6339615234401424
aF0.7565321266326525
aF0.91107688178239
aF0.5498625752509245
aF0.14354639054881957
aF0.5619141254344711
aF0.265342164550751
aF0.8388175118700822
aF0.9833903769482164
aF0.6738865808786272
aF0.6512650328409254
aF0.48294223798710256
aF0.1387200612693189
aF0.835554709948788
aF0.7616316635809282
aF0.8761737970962242
aF0.8073516959290817
aF0.6500170828702859
aF0.545937736597017
aF0.0903070476678971
aF0.8384340490931849
aF0.4027936354380143
aF0.9040846305130404
aF0.6706760952081714
aF0.10916150320625617
aF0.44045909514999704
aF0.8820290337054798
aI1
aF0.5144085699395398
aF0.3623494602223487
aF0.943016125320638
aF0.49577216384219935
aF0.9805736093380334
aF0.07995228377027219
aF0.6416106711725467
aF0.5839094314738595
atp142
Rp143
(dp144
g35
I13
sg20
S'000-013'
p145
sg21
g0
(g28
g5
Ntp146
Rp147
(dp148
g40
(F-4.691964626312256
tp149
sbsbsI14
g0
(g30
g18
(lp150
F0.9779824383164536
aF0.7515375788719578
aF0.7561781958356316
aF0.09229008083174195
aF0.33995830970210594
aF0.5721906500722429
aF0.3511067493228047
aF0.6509239885960971
aF0.544991678514162
aF0.42817688033689727
aF0.003311608895722906
aF0.0013731729877423104
aF0.04617021374280783
aF0.3344004211359771
aF0.2853867415188168
aF0.7073611029498671
aF0.0038817007837623763
aI1
aF0.7730933885192107
aF0.4440699130585216
aF0.6592597182584303
aF0.23361498731402375
aF0.23952522422852618
aF0.9669970443742493
aF0.6339615234401424
aF0.7565321266326525
aF0.91107688178239
aF0.5498625752509245
aF0.14354639054881957
aF0.5619141254344711
aF0.265342164550751
aF0.8388175118700822
aF0.9833903769482164
aF0.6738865808786272
aF0.6512650328409254
aF0.48294223798710256
aF0.1387200612693189
aF0.835554709948788
aF0.7616316635809282
aF0.8761737970962242
aF0.8073516959290817
aF0.6500170828702859
aF0.545937736597017
aF0.0903070476678971
aF0.8384340490931849
aF0.4027936354380143
aF0.9040846305130404
aF0.6706760952081714
aF0.10916150320625617
aF0.44045909514999704
aF0.8820290337054798
aI1
aF0.5144085699395398
aF0.3623494602223487
aF0.943016125320638
aF0.49577216384219935
aF0.9805736093380334
aF0.07995228377027219
aF0.6416106711725467
aF0.5839094314738595
atp151
Rp152
(dp153
g35
I14
sg20
S'000-014'
p154
sg21
g0
(g28
g5
Ntp155
Rp156
(dp157
g40
(F-4.691964626312256
tp158
sbsbsI15
g0
(g30
g18
(lp159
F0.9779824383164536
aF0.7515375788719578
aF0.7561781958356316
aF0.09229008083174195
aF0.33995830970210594
aF0.5721906500722429
aF0.3511067493228047
aF0.6509239885960971
aF0.544991678514162
aF0.42817688033689727
aF0.003311608895722906
aF0.0013731729877423104
aF0.04617021374280783
aF0.3344004211359771
aF0.2853867415188168
aF0.7073611029498671
aF0.0038817007837623763
aI1
aF0.7730933885192107
aF0.4440699130585216
aF0.6592597182584303
aF0.23361498731402375
aF0.23952522422852618
aF0.9669970443742493
aF0.6339615234401424
aF0.7565321266326525
aF0.91107688178239
aF0.5498625752509245
aF0.14354639054881957
aF0.5619141254344711
aF0.265342164550751
aF0.8388175118700822
aF0.9833903769482164
aF0.6738865808786272
aF0.6512650328409254
aF0.48294223798710256
aF0.1387200612693189
aF0.835554709948788
aF0.7616316635809282
aF0.8761737970962242
aF0.8073516959290817
aF0.6500170828702859
aF0.545937736597017
aF0.0903070476678971
aF0.8384340490931849
aF0.4027936354380143
aF0.9040846305130404
aF0.6706760952081714
aF0.10916150320625617
aF0.44045909514999704
aF0.8820290337054798
aI1
aF0.5144085699395398
aF0.3623494602223487
aF0.943016125320638
aF0.49577216384219935
aF0.9805736093380334
aF0.07995228377027219
aF0.6416106711725467
aF0.5839094314738595
atp160
Rp161
(dp162
g35
I15
sg20
S'000-015'
p163
sg21
g0
(g28
g5
Ntp164
Rp165
(dp166
g40
(F-4.691964626312256
tp167
sbsbsI16
g0
(g30
g18
(lp168
F0.9779824383164536
aF0.7515375788719578
aF0.7561781958356316
aF0.09229008083174195
aF0.33995830970210594
aF0.5721906500722429
aF0.3511067493228047
aF0.6509239885960971
aF0.544991678514162
aF0.42817688033689727
aF0.003311608895722906
aF0.0013731729877423104
aF0.04617021374280783
aF0.3344004211359771
aF0.2853867415188168
aF0.7073611029498671
aF0.0038817007837623763
aI1
aF0.7730933885192107
aF0.4440699130585216
aF0.6592597182584303
aF0.23361498731402375
aF0.23952522422852618
aF0.9669970443742493
aF0.6339615234401424
aF0.7565321266326525
aF0.91107688178239
aF0.5498625752509245
aF0.14354639054881957
aF0.5619141254344711
aF0.265342164550751
aF0.8388175118700822
aF0.9833903769482164
aF0.6738865808786272
aF0.6512650328409254
aF0.48294223798710256
aF0.1387200612693189
aF0.835554709948788
aF0.7616316635809282
aF0.8761737970962242
aF0.8073516959290817
aF0.6500170828702859
aF0.545937736597017
aF0.0903070476678971
aF0.8384340490931849
aF0.4027936354380143
aF0.9040846305130404
aF0.6706760952081714
aF0.10916150320625617
aF0.44045909514999704
aF0.8820290337054798
aI1
aF0.5144085699395398
aF0.3623494602223487
aF0.943016125320638
aF0.49577216384219935
aF0.9805736093380334
aF0.07995228377027219
aF0.6416106711725467
aF0.5839094314738595
atp169
Rp170
(dp171
g35
I16
sg20
S'000-016'
p172
sg21
g0
(g28
g5
Ntp173
Rp174
(dp175
g40
(F-4.691964626312256
tp176
sbsbsI17
g0
(g30
g18
(lp177
F0.9779824383164536
aF0.7515375788719578
aF0.7561781958356316
aF0.09229008083174195
aF0.33995830970210594
aF0.5721906500722429
aF0.3511067493228047
aF0.6509239885960971
aF0.544991678514162
aF0.42817688033689727
aF0.003311608895722906
aF0.0013731729877423104
aF0.04617021374280783
aF0.3344004211359771
aF0.2853867415188168
aF0.7073611029498671
aF0.0038817007837623763
aI1
aF0.7730933885192107
aF0.4440699130585216
aF0.6592597182584303
aF0.23361498731402375
aF0.23952522422852618
aF0.9669970443742493
aF0.6339615234401424
aF0.7565321266326525
aF0.91107688178239
aF0.5498625752509245
aF0.14354639054881957
aF0.5619141254344711
aF0.265342164550751
aF0.8388175118700822
aF0.9833903769482164
aF0.6738865808786272
aF0.6512650328409254
aF0.48294223798710256
aF0.1387200612693189
aF0.835554709948788
aF0.7616316635809282
aF0.8761737970962242
aF0.8073516959290817
aF0.6500170828702859
aF0.545937736597017
aF0.0903070476678971
aF0.8384340490931849
aF0.4027936354380143
aF0.9040846305130404
aF0.6706760952081714
aF0.10916150320625617
aF0.44045909514999704
aF0.8820290337054798
aI1
aF0.5144085699395398
aF0.3623494602223487
aF0.943016125320638
aF0.49577216384219935
aF0.9805736093380334
aF0.07995228377027219
aF0.6416106711725467
aF0.5839094314738595
atp178
Rp179
(dp180
g35
I17
sg20
S'000-017'
p181
sg21
g0
(g28
g5
Ntp182
Rp183
(dp184
g40
(F-4.691964626312256
tp185
sbsbsI18
g0
(g30
g18
(lp186
F0.9779824383164536
aF0.7515375788719578
aF0.7561781958356316
aF0.09229008083174195
aF0.33995830970210594
aF0.5721906500722429
aF0.3511067493228047
aF0.6509239885960971
aF0.544991678514162
aF0.42817688033689727
aF0.003311608895722906
aF0.0013731729877423104
aF0.04617021374280783
aF0.3344004211359771
aF0.2853867415188168
aF0.7073611029498671
aF0.0038817007837623763
aI1
aF0.7730933885192107
aF0.4440699130585216
aF0.6592597182584303
aF0.23361498731402375
aF0.23952522422852618
aF0.9669970443742493
aF0.6339615234401424
aF0.7565321266326525
aF0.91107688178239
aF0.5498625752509245
aF0.14354639054881957
aF0.5619141254344711
aF0.265342164550751
aF0.8388175118700822
aF0.9833903769482164
aF0.6738865808786272
aF0.6512650328409254
aF0.48294223798710256
aF0.1387200612693189
aF0.835554709948788
aF0.7616316635809282
aF0.8761737970962242
aF0.8073516959290817
aF0.6500170828702859
aF0.545937736597017
aF0.0903070476678971
aF0.8384340490931849
aF0.4027936354380143
aF0.9040846305130404
aF0.6706760952081714
aF0.10916150320625617
aF0.44045909514999704
aF0.8820290337054798
aI1
aF0.5144085699395398
aF0.3623494602223487
aF0.943016125320638
aF0.49577216384219935
aF0.9805736093380334
aF0.07995228377027219
aF0.6416106711725467
aF0.5839094314738595
atp187
Rp188
(dp189
g35
I18
sg20
S'000-018'
p190
sg21
g0
(g28
g5
Ntp191
Rp192
(dp193
g40
(F-4.691964626312256
tp194
sbsbsI19
g0
(g30
g18
(lp195
F0.9779824383164536
aF0.7515375788719578
aF0.7561781958356316
aF0.09229008083174195
aF0.33995830970210594
aF0.5721906500722429
aF0.3511067493228047
aF0.6509239885960971
aF0.544991678514162
aF0.42817688033689727
aF0.003311608895722906
aF0.0013731729877423104
aF0.04617021374280783
aF0.3344004211359771
aF0.2853867415188168
aF0.7073611029498671
aF0.0038817007837623763
aI1
aF0.7730933885192107
aF0.4440699130585216
aF0.6592597182584303
aF0.23361498731402375
aF0.23952522422852618
aF0.9669970443742493
aF0.6339615234401424
aF0.7565321266326525
aF0.91107688178239
aF0.5498625752509245
aF0.14354639054881957
aF0.5619141254344711
aF0.265342164550751
aF0.8388175118700822
aF0.9833903769482164
aF0.6738865808786272
aF0.6512650328409254
aF0.48294223798710256
aF0.1387200612693189
aF0.835554709948788
aF0.7616316635809282
aF0.8761737970962242
aF0.8073516959290817
aF0.6500170828702859
aF0.545937736597017
aF0.0903070476678971
aF0.8384340490931849
aF0.4027936354380143
aF0.9040846305130404
aF0.6706760952081714
aF0.10916150320625617
aF0.44045909514999704
aF0.8820290337054798
aI1
aF0.5144085699395398
aF0.3623494602223487
aF0.943016125320638
aF0.49577216384219935
aF0.9805736093380334
aF0.07995228377027219
aF0.6416106711725467
aF0.5839094314738595
atp196
Rp197
(dp198
g35
I19
sg20
S'000-019'
p199
sg21
g0
(g28
g5
Ntp200
Rp201
(dp202
g40
(F-4.691964626312256
tp203
sbsbsI20
g0
(g30
g18
(lp204
F0.9779824383164536
aF0.7515375788719578
aF0.7561781958356316
aF0.09229008083174195
aF0.33995830970210594
aF0.5721906500722429
aF0.3511067493228047
aF0.6509239885960971
aF0.544991678514162
aF0.42817688033689727
aF0.003311608895722906
aF0.0013731729877423104
aF0.04617021374280783
aF0.3344004211359771
aF0.2853867415188168
aF0.7073611029498671
aF0.0038817007837623763
aI1
aF0.7730933885192107
aF0.4440699130585216
aF0.6592597182584303
aF0.23361498731402375
aF0.23952522422852618
aF0.9669970443742493
aF0.6339615234401424
aF0.7565321266326525
aF0.91107688178239
aF0.5498625752509245
aF0.14354639054881957
aF0.5619141254344711
aF0.265342164550751
aF0.8388175118700822
aF0.9833903769482164
aF0.6738865808786272
aF0.6512650328409254
aF0.48294223798710256
aF0.1387200612693189
aF0.835554709948788
aF0.7616316635809282
aF0.8761737970962242
aF0.8073516959290817
aF0.6500170828702859
aF0.545937736597017
aF0.0903070476678971
aF0.8384340490931849
aF0.4027936354380143
aF0.9040846305130404
aF0.6706760952081714
aF0.10916150320625617
aF0.44045909514999704
aF0.8820290337054798
aI1
aF0.5144085699395398
aF0.3623494602223487
aF0.943016125320638
aF0.49577216384219935
aF0.9805736093380334
aF0.07995228377027219
aF0.6416106711725467
aF0.5839094314738595
atp205
Rp206
(dp207
g35
I20
sg20
S'000-020'
p208
sg21
g0
(g28
g5
Ntp209
Rp210
(dp211
g40
(F-4.691964626312256
tp212
sbsbsI21
g0
(g30
g18
(lp213
F0.9779824383164536
aF0.7515375788719578
aF0.7561781958356316
aF0.09229008083174195
aF0.33995830970210594
aF0.5721906500722429
aF0.3511067493228047
aF0.6509239885960971
aF0.544991678514162
aF0.42817688033689727
aF0.003311608895722906
aF0.0013731729877423104
aF0.04617021374280783
aF0.3344004211359771
aF0.2853867415188168
aF0.7073611029498671
aF0.0038817007837623763
aI1
aF0.7730933885192107
aF0.4440699130585216
aF0.6592597182584303
aF0.23361498731402375
aF0.23952522422852618
aF0.9669970443742493
aF0.6339615234401424
aF0.7565321266326525
aF0.91107688178239
aF0.5498625752509245
aF0.14354639054881957
aF0.5619141254344711
aF0.265342164550751
aF0.8388175118700822
aF0.9833903769482164
aF0.6738865808786272
aF0.6512650328409254
aF0.48294223798710256
aF0.1387200612693189
aF0.835554709948788
aF0.7616316635809282
aF0.8761737970962242
aF0.8073516959290817
aF0.6500170828702859
aF0.545937736597017
aF0.0903070476678971
aF0.8384340490931849
aF0.4027936354380143
aF0.9040846305130404
aF0.6706760952081714
aF0.10916150320625617
aF0.44045909514999704
aF0.8820290337054798
aI1
aF0.5144085699395398
aF0.3623494602223487
aF0.943016125320638
aF0.49577216384219935
aF0.9805736093380334
aF0.07995228377027219
aF0.6416106711725467
aF0.5839094314738595
atp214
Rp215
(dp216
g35
I21
sg20
S'000-021'
p217
sg21
g0
(g28
g5
Ntp218
Rp219
(dp220
g40
(F-4.691964626312256
tp221
sbsbsI22
g0
(g30
g18
(lp222
F0.9779824383164536
aF0.7515375788719578
aF0.7561781958356316
aF0.09229008083174195
aF0.33995830970210594
aF0.5721906500722429
aF0.3511067493228047
aF0.6509239885960971
aF0.544991678514162
aF0.42817688033689727
aF0.003311608895722906
aF0.0013731729877423104
aF0.04617021374280783
aF0.3344004211359771
aF0.2853867415188168
aF0.7073611029498671
aF0.0038817007837623763
aI1
aF0.7730933885192107
aF0.4440699130585216
aF0.6592597182584303
aF0.23361498731402375
aF0.23952522422852618
aF0.9669970443742493
aF0.6339615234401424
aF0.7565321266326525
aF0.91107688178239
aF0.5498625752509245
aF0.14354639054881957
aF0.5619141254344711
aF0.265342164550751
aF0.8388175118700822
aF0.9833903769482164
aF0.6738865808786272
aF0.6512650328409254
aF0.48294223798710256
aF0.1387200612693189
aF0.835554709948788
aF0.7616316635809282
aF0.8761737970962242
aF0.8073516959290817
aF0.6500170828702859
aF0.545937736597017
aF0.0903070476678971
aF0.8384340490931849
aF0.4027936354380143
aF0.9040846305130404
aF0.6706760952081714
aF0.10916150320625617
aF0.44045909514999704
aF0.8820290337054798
aI1
aF0.5144085699395398
aF0.3623494602223487
aF0.943016125320638
aF0.49577216384219935
aF0.9805736093380334
aF0.07995228377027219
aF0.6416106711725467
aF0.5839094314738595
atp223
Rp224
(dp225
g35
I22
sg20
S'000-022'
p226
sg21
g0
(g28
g5
Ntp227
Rp228
(dp229
g40
(F-4.691964626312256
tp230
sbsbsI23
g0
(g30
g18
(lp231
F0.9779824383164536
aF0.7515375788719578
aF0.7561781958356316
aF0.09229008083174195
aF0.33995830970210594
aF0.5721906500722429
aF0.3511067493228047
aF0.6509239885960971
aF0.544991678514162
aF0.42817688033689727
aF0.003311608895722906
aF0.0013731729877423104
aF0.04617021374280783
aF0.3344004211359771
aF0.2853867415188168
aF0.7073611029498671
aF0.0038817007837623763
aI1
aF0.7730933885192107
aF0.4440699130585216
aF0.6592597182584303
aF0.23361498731402375
aF0.23952522422852618
aF0.9669970443742493
aF0.6339615234401424
aF0.7565321266326525
aF0.91107688178239
aF0.5498625752509245
aF0.14354639054881957
aF0.5619141254344711
aF0.265342164550751
aF0.8388175118700822
aF0.9833903769482164
aF0.6738865808786272
aF0.6512650328409254
aF0.48294223798710256
aF0.1387200612693189
aF0.835554709948788
aF0.7616316635809282
aF0.8761737970962242
aF0.8073516959290817
aF0.6500170828702859
aF0.545937736597017
aF0.0903070476678971
aF0.8384340490931849
aF0.4027936354380143
aF0.9040846305130404
aF0.6706760952081714
aF0.10916150320625617
aF0.44045909514999704
aF0.8820290337054798
aI1
aF0.5144085699395398
aF0.3623494602223487
aF0.943016125320638
aF0.49577216384219935
aF0.9805736093380334
aF0.07995228377027219
aF0.6416106711725467
aF0.5839094314738595
atp232
Rp233
(dp234
g35
I23
sg20
S'000-023'
p235
sg21
g0
(g28
g5
Ntp236
Rp237
(dp238
g40
(F-4.691964626312256
tp239
sbsbsI24
g0
(g30
g18
(lp240
F0.9779824383164536
aF0.7515375788719578
aF0.7561781958356316
aF0.09229008083174195
aF0.33995830970210594
aF0.5721906500722429
aF0.3511067493228047
aF0.6509239885960971
aF0.544991678514162
aF0.42817688033689727
aF0.003311608895722906
aF0.0013731729877423104
aF0.04617021374280783
aF0.3344004211359771
aF0.2853867415188168
aF0.7073611029498671
aF0.0038817007837623763
aI1
aF0.7730933885192107
aF0.4440699130585216
aF0.6592597182584303
aF0.23361498731402375
aF0.23952522422852618
aF0.9669970443742493
aF0.6339615234401424
aF0.7565321266326525
aF0.91107688178239
aF0.5498625752509245
aF0.14354639054881957
aF0.5619141254344711
aF0.265342164550751
aF0.8388175118700822
aF0.9833903769482164
aF0.6738865808786272
aF0.6512650328409254
aF0.48294223798710256
aF0.1387200612693189
aF0.835554709948788
aF0.7616316635809282
aF0.8761737970962242
aF0.8073516959290817
aF0.6500170828702859
aF0.545937736597017
aF0.0903070476678971
aF0.8384340490931849
aF0.4027936354380143
aF0.9040846305130404
aF0.6706760952081714
aF0.10916150320625617
aF0.44045909514999704
aF0.8820290337054798
aI1
aF0.5144085699395398
aF0.3623494602223487
aF0.943016125320638
aF0.49577216384219935
aF0.9805736093380334
aF0.07995228377027219
aF0.6416106711725467
aF0.5839094314738595
atp241
Rp242
(dp243
g35
I24
sg20
S'000-024'
p244
sg21
g0
(g28
g5
Ntp245
Rp246
(dp247
g40
(F-4.691964626312256
tp248
sbsbsI25
g0
(g30
g18
(lp249
F0.9779824383164536
aF0.7515375788719578
aF0.7561781958356316
aF0.09229008083174195
aF0.33995830970210594
aF0.5721906500722429
aF0.3511067493228047
aF0.6509239885960971
aF0.544991678514162
aF0.42817688033689727
aF0.003311608895722906
aF0.0013731729877423104
aF0.04617021374280783
aF0.3344004211359771
aF0.2853867415188168
aF0.7073611029498671
aF0.0038817007837623763
aI1
aF0.7730933885192107
aF0.4440699130585216
aF0.6592597182584303
aF0.23361498731402375
aF0.23952522422852618
aF0.9669970443742493
aF0.6339615234401424
aF0.7565321266326525
aF0.91107688178239
aF0.5498625752509245
aF0.14354639054881957
aF0.5619141254344711
aF0.265342164550751
aF0.8388175118700822
aF0.9833903769482164
aF0.6738865808786272
aF0.6512650328409254
aF0.48294223798710256
aF0.1387200612693189
aF0.835554709948788
aF0.7616316635809282
aF0.8761737970962242
aF0.8073516959290817
aF0.6500170828702859
aF0.545937736597017
aF0.0903070476678971
aF0.8384340490931849
aF0.4027936354380143
aF0.9040846305130404
aF0.6706760952081714
aF0.10916150320625617
aF0.44045909514999704
aF0.8820290337054798
aI1
aF0.5144085699395398
aF0.3623494602223487
aF0.943016125320638
aF0.49577216384219935
aF0.9805736093380334
aF0.07995228377027219
aF0.6416106711725467
aF0.5839094314738595
atp250
Rp251
(dp252
g35
I25
sg20
S'000-025'
p253
sg21
g0
(g28
g5
Ntp254
Rp255
(dp256
g40
(F-4.691964626312256
tp257
sbsbsI26
g0
(g30
g18
(lp258
F0.9779824383164536
aF0.7515375788719578
aF0.7561781958356316
aF0.09229008083174195
aF0.33995830970210594
aF0.5721906500722429
aF0.3511067493228047
aF0.6509239885960971
aF0.544991678514162
aF0.42817688033689727
aF0.003311608895722906
aF0.0013731729877423104
aF0.04617021374280783
aF0.3344004211359771
aF0.2853867415188168
aF0.7073611029498671
aF0.0038817007837623763
aI1
aF0.7730933885192107
aF0.4440699130585216
aF0.6592597182584303
aF0.23361498731402375
aF0.23952522422852618
aF0.9669970443742493
aF0.6339615234401424
aF0.7565321266326525
aF0.91107688178239
aF0.5498625752509245
aF0.14354639054881957
aF0.5619141254344711
aF0.265342164550751
aF0.8388175118700822
aF0.9833903769482164
aF0.6738865808786272
aF0.6512650328409254
aF0.48294223798710256
aF0.1387200612693189
aF0.835554709948788
aF0.7616316635809282
aF0.8761737970962242
aF0.8073516959290817
aF0.6500170828702859
aF0.545937736597017
aF0.0903070476678971
aF0.8384340490931849
aF0.4027936354380143
aF0.9040846305130404
aF0.6706760952081714
aF0.10916150320625617
aF0.44045909514999704
aF0.8820290337054798
aI1
aF0.5144085699395398
aF0.3623494602223487
aF0.943016125320638
aF0.49577216384219935
aF0.9805736093380334
aF0.07995228377027219
aF0.6416106711725467
aF0.5839094314738595
atp259
Rp260
(dp261
g35
I26
sg20
S'000-026'
p262
sg21
g0
(g28
g5
Ntp263
Rp264
(dp265
g40
(F-4.691964626312256
tp266
sbsbsI27
g0
(g30
g18
(lp267
F0.9779824383164536
aF0.7515375788719578
aF0.7561781958356316
aF0.09229008083174195
aF0.33995830970210594
aF0.5721906500722429
aF0.3511067493228047
aF0.6509239885960971
aF0.544991678514162
aF0.42817688033689727
aF0.003311608895722906
aF0.0013731729877423104
aF0.04617021374280783
aF0.3344004211359771
aF0.2853867415188168
aF0.7073611029498671
aF0.0038817007837623763
aI1
aF0.7730933885192107
aF0.4440699130585216
aF0.6592597182584303
aF0.23361498731402375
aF0.23952522422852618
aF0.9669970443742493
aF0.6339615234401424
aF0.7565321266326525
aF0.91107688178239
aF0.5498625752509245
aF0.14354639054881957
aF0.5619141254344711
aF0.265342164550751
aF0.8388175118700822
aF0.9833903769482164
aF0.6738865808786272
aF0.6512650328409254
aF0.48294223798710256
aF0.1387200612693189
aF0.835554709948788
aF0.7616316635809282
aF0.8761737970962242
aF0.8073516959290817
aF0.6500170828702859
aF0.545937736597017
aF0.0903070476678971
aF0.8384340490931849
aF0.4027936354380143
aF0.9040846305130404
aF0.6706760952081714
aF0.10916150320625617
aF0.44045909514999704
aF0.8820290337054798
aI1
aF0.5144085699395398
aF0.3623494602223487
aF0.943016125320638
aF0.49577216384219935
aF0.9805736093380334
aF0.07995228377027219
aF0.6416106711725467
aF0.5839094314738595
atp268
Rp269
(dp270
g35
I27
sg20
S'000-027'
p271
sg21
g0
(g28
g5
Ntp272
Rp273
(dp274
g40
(F-4.691964626312256
tp275
sbsbsI28
g0
(g30
g18
(lp276
F0.9779824383164536
aF0.7515375788719578
aF0.7561781958356316
aF0.09229008083174195
aF0.33995830970210594
aF0.5721906500722429
aF0.3511067493228047
aF0.6509239885960971
aF0.544991678514162
aF0.42817688033689727
aF0.003311608895722906
aF0.0013731729877423104
aF0.04617021374280783
aF0.3344004211359771
aF0.2853867415188168
aF0.7073611029498671
aF0.0038817007837623763
aI1
aF0.7730933885192107
aF0.4440699130585216
aF0.6592597182584303
aF0.23361498731402375
aF0.23952522422852618
aF0.9669970443742493
aF0.6339615234401424
aF0.7565321266326525
aF0.91107688178239
aF0.5498625752509245
aF0.14354639054881957
aF0.5619141254344711
aF0.265342164550751
aF0.8388175118700822
aF0.9833903769482164
aF0.6738865808786272
aF0.6512650328409254
aF0.48294223798710256
aF0.1387200612693189
aF0.835554709948788
aF0.7616316635809282
aF0.8761737970962242
aF0.8073516959290817
aF0.6500170828702859
aF0.545937736597017
aF0.0903070476678971
aF0.8384340490931849
aF0.4027936354380143
aF0.9040846305130404
aF0.6706760952081714
aF0.10916150320625617
aF0.44045909514999704
aF0.8820290337054798
aI1
aF0.5144085699395398
aF0.3623494602223487
aF0.943016125320638
aF0.49577216384219935
aF0.9805736093380334
aF0.07995228377027219
aF0.6416106711725467
aF0.5839094314738595
atp277
Rp278
(dp279
g35
I28
sg20
S'000-028'
p280
sg21
g0
(g28
g5
Ntp281
Rp282
(dp283
g40
(F-4.691964626312256
tp284
sbsbsI29
g0
(g30
g18
(lp285
F0.9779824383164536
aF0.7515375788719578
aF0.7561781958356316
aF0.09229008083174195
aF0.33995830970210594
aF0.5721906500722429
aF0.3511067493228047
aF0.6509239885960971
aF0.544991678514162
aF0.42817688033689727
aF0.003311608895722906
aF0.0013731729877423104
aF0.04617021374280783
aF0.3344004211359771
aF0.2853867415188168
aF0.7073611029498671
aF0.0038817007837623763
aI1
aF0.7730933885192107
aF0.4440699130585216
aF0.6592597182584303
aF0.23361498731402375
aF0.23952522422852618
aF0.9669970443742493
aF0.6339615234401424
aF0.7565321266326525
aF0.91107688178239
aF0.5498625752509245
aF0.14354639054881957
aF0.5619141254344711
aF0.265342164550751
aF0.8388175118700822
aF0.9833903769482164
aF0.6738865808786272
aF0.6512650328409254
aF0.48294223798710256
aF0.1387200612693189
aF0.835554709948788
aF0.7616316635809282
aF0.8761737970962242
aF0.8073516959290817
aF0.6500170828702859
aF0.545937736597017
aF0.0903070476678971
aF0.8384340490931849
aF0.4027936354380143
aF0.9040846305130404
aF0.6706760952081714
aF0.10916150320625617
aF0.44045909514999704
aF0.8820290337054798
aI1
aF0.5144085699395398
aF0.3623494602223487
aF0.943016125320638
aF0.49577216384219935
aF0.9805736093380334
aF0.07995228377027219
aF0.6416106711725467
aF0.5839094314738595
atp286
Rp287
(dp288
g35
I29
sg20
S'000-029'
p289
sg21
g0
(g28
g5
Ntp290
Rp291
(dp292
g40
(F-4.691964626312256
tp293
sbsbsI30
g0
(g30
g18
(lp294
F0.9779824383164536
aF0.7515375788719578
aF0.7561781958356316
aF0.09229008083174195
aF0.33995830970210594
aF0.5721906500722429
aF0.3511067493228047
aF0.6509239885960971
aF0.544991678514162
aF0.42817688033689727
aF0.003311608895722906
aF0.0013731729877423104
aF0.04617021374280783
aF0.3344004211359771
aF0.2853867415188168
aF0.7073611029498671
aF0.0038817007837623763
aI1
aF0.7730933885192107
aF0.4440699130585216
aF0.6592597182584303
aF0.23361498731402375
aF0.23952522422852618
aF0.9669970443742493
aF0.6339615234401424
aF0.7565321266326525
aF0.91107688178239
aF0.5498625752509245
aF0.14354639054881957
aF0.5619141254344711
aF0.265342164550751
aF0.8388175118700822
aF0.9833903769482164
aF0.6738865808786272
aF0.6512650328409254
aF0.48294223798710256
aF0.1387200612693189
aF0.835554709948788
aF0.7616316635809282
aF0.8761737970962242
aF0.8073516959290817
aF0.6500170828702859
aF0.545937736597017
aF0.0903070476678971
aF0.8384340490931849
aF0.4027936354380143
aF0.9040846305130404
aF0.6706760952081714
aF0.10916150320625617
aF0.44045909514999704
aF0.8820290337054798
aI1
aF0.5144085699395398
aF0.3623494602223487
aF0.943016125320638
aF0.49577216384219935
aF0.9805736093380334
aF0.07995228377027219
aF0.6416106711725467
aF0.5839094314738595
atp295
Rp296
(dp297
g35
I30
sg20
S'000-030'
p298
sg21
g0
(g28
g5
Ntp299
Rp300
(dp301
g40
(F-4.691964626312256
tp302
sbsbsI31
g0
(g30
g18
(lp303
F0.9779824383164536
aF0.7515375788719578
aF0.7561781958356316
aF0.09229008083174195
aF0.33995830970210594
aF0.5721906500722429
aF0.3511067493228047
aF0.6509239885960971
aF0.544991678514162
aF0.42817688033689727
aF0.003311608895722906
aF0.0013731729877423104
aF0.04617021374280783
aF0.3344004211359771
aF0.2853867415188168
aF0.7073611029498671
aF0.0038817007837623763
aI1
aF0.7730933885192107
aF0.4440699130585216
aF0.6592597182584303
aF0.23361498731402375
aF0.23952522422852618
aF0.9669970443742493
aF0.6339615234401424
aF0.7565321266326525
aF0.91107688178239
aF0.5498625752509245
aF0.14354639054881957
aF0.5619141254344711
aF0.265342164550751
aF0.8388175118700822
aF0.9833903769482164
aF0.6738865808786272
aF0.6512650328409254
aF0.48294223798710256
aF0.1387200612693189
aF0.835554709948788
aF0.7616316635809282
aF0.8761737970962242
aF0.8073516959290817
aF0.6500170828702859
aF0.545937736597017
aF0.0903070476678971
aF0.8384340490931849
aF0.4027936354380143
aF0.9040846305130404
aF0.6706760952081714
aF0.10916150320625617
aF0.44045909514999704
aF0.8820290337054798
aI1
aF0.5144085699395398
aF0.3623494602223487
aF0.943016125320638
aF0.49577216384219935
aF0.9805736093380334
aF0.07995228377027219
aF0.6416106711725467
aF0.5839094314738595
atp304
Rp305
(dp306
g35
I31
sg20
S'000-031'
p307
sg21
g0
(g28
g5
Ntp308
Rp309
(dp310
g40
(F-4.691964626312256
tp311
sbsbsI32
g0
(g30
g18
(lp312
F0.9779824383164536
aF0.7515375788719578
aF0.7561781958356316
aF0.09229008083174195
aF0.33995830970210594
aF0.5721906500722429
aF0.3511067493228047
aF0.6509239885960971
aF0.544991678514162
aF0.42817688033689727
aF0.003311608895722906
aF0.0013731729877423104
aF0.04617021374280783
aF0.3344004211359771
aF0.2853867415188168
aF0.7073611029498671
aF0.0038817007837623763
aI1
aF0.7730933885192107
aF0.4440699130585216
aF0.6592597182584303
aF0.23361498731402375
aF0.23952522422852618
aF0.9669970443742493
aF0.6339615234401424
aF0.7565321266326525
aF0.91107688178239
aF0.5498625752509245
aF0.14354639054881957
aF0.5619141254344711
aF0.265342164550751
aF0.8388175118700822
aF0.9833903769482164
aF0.6738865808786272
aF0.6512650328409254
aF0.48294223798710256
aF0.1387200612693189
aF0.835554709948788
aF0.7616316635809282
aF0.8761737970962242
aF0.8073516959290817
aF0.6500170828702859
aF0.545937736597017
aF0.0903070476678971
aF0.8384340490931849
aF0.4027936354380143
aF0.9040846305130404
aF0.6706760952081714
aF0.10916150320625617
aF0.44045909514999704
aF0.8820290337054798
aI1
aF0.5144085699395398
aF0.3623494602223487
aF0.943016125320638
aF0.49577216384219935
aF0.9805736093380334
aF0.07995228377027219
aF0.6416106711725467
aF0.5839094314738595
atp313
Rp314
(dp315
g35
I32
sg20
S'000-032'
p316
sg21
g0
(g28
g5
Ntp317
Rp318
(dp319
g40
(F-4.691964626312256
tp320
sbsbsI33
g0
(g30
g18
(lp321
F0.9779824383164536
aF0.7515375788719578
aF0.7561781958356316
aF0.09229008083174195
aF0.33995830970210594
aF0.5721906500722429
aF0.3511067493228047
aF0.6509239885960971
aF0.544991678514162
aF0.42817688033689727
aF0.003311608895722906
aF0.0013731729877423104
aF0.04617021374280783
aF0.3344004211359771
aF0.2853867415188168
aF0.7073611029498671
aF0.0038817007837623763
aI1
aF0.7730933885192107
aF0.4440699130585216
aF0.6592597182584303
aF0.23361498731402375
aF0.23952522422852618
aF0.9669970443742493
aF0.6339615234401424
aF0.7565321266326525
aF0.91107688178239
aF0.5498625752509245
aF0.14354639054881957
aF0.5619141254344711
aF0.265342164550751
aF0.8388175118700822
aF0.9833903769482164
aF0.6738865808786272
aF0.6512650328409254
aF0.48294223798710256
aF0.1387200612693189
aF0.835554709948788
aF0.7616316635809282
aF0.8761737970962242
aF0.8073516959290817
aF0.6500170828702859
aF0.545937736597017
aF0.0903070476678971
aF0.8384340490931849
aF0.4027936354380143
aF0.9040846305130404
aF0.6706760952081714
aF0.10916150320625617
aF0.44045909514999704
aF0.8820290337054798
aI1
aF0.5144085699395398
aF0.3623494602223487
aF0.943016125320638
aF0.49577216384219935
aF0.9805736093380334
aF0.07995228377027219
aF0.6416106711725467
aF0.5839094314738595
atp322
Rp323
(dp324
g35
I33
sg20
S'000-033'
p325
sg21
g0
(g28
g5
Ntp326
Rp327
(dp328
g40
(F-4.691964626312256
tp329
sbsbsI34
g0
(g30
g18
(lp330
F0.9779824383164536
aF0.7515375788719578
aF0.7561781958356316
aF0.09229008083174195
aF0.33995830970210594
aF0.5721906500722429
aF0.3511067493228047
aF0.6509239885960971
aF0.544991678514162
aF0.42817688033689727
aF0.003311608895722906
aF0.0013731729877423104
aF0.04617021374280783
aF0.3344004211359771
aF0.2853867415188168
aF0.7073611029498671
aF0.0038817007837623763
aI1
aF0.7730933885192107
aF0.4440699130585216
aF0.6592597182584303
aF0.23361498731402375
aF0.23952522422852618
aF0.9669970443742493
aF0.6339615234401424
aF0.7565321266326525
aF0.91107688178239
aF0.5498625752509245
aF0.14354639054881957
aF0.5619141254344711
aF0.265342164550751
aF0.8388175118700822
aF0.9833903769482164
aF0.6738865808786272
aF0.6512650328409254
aF0.48294223798710256
aF0.1387200612693189
aF0.835554709948788
aF0.7616316635809282
aF0.8761737970962242
aF0.8073516959290817
aF0.6500170828702859
aF0.545937736597017
aF0.0903070476678971
aF0.8384340490931849
aF0.4027936354380143
aF0.9040846305130404
aF0.6706760952081714
aF0.10916150320625617
aF0.44045909514999704
aF0.8820290337054798
aI1
aF0.5144085699395398
aF0.3623494602223487
aF0.943016125320638
aF0.49577216384219935
aF0.9805736093380334
aF0.07995228377027219
aF0.6416106711725467
aF0.5839094314738595
atp331
Rp332
(dp333
g35
I34
sg20
S'000-034'
p334
sg21
g0
(g28
g5
Ntp335
Rp336
(dp337
g40
(F-4.691964626312256
tp338
sbsbsI35
g0
(g30
g18
(lp339
F0.9779824383164536
aF0.7515375788719578
aF0.7561781958356316
aF0.09229008083174195
aF0.33995830970210594
aF0.5721906500722429
aF0.3511067493228047
aF0.6509239885960971
aF0.544991678514162
aF0.42817688033689727
aF0.003311608895722906
aF0.0013731729877423104
aF0.04617021374280783
aF0.3344004211359771
aF0.2853867415188168
aF0.7073611029498671
aF0.0038817007837623763
aI1
aF0.7730933885192107
aF0.4440699130585216
aF0.6592597182584303
aF0.23361498731402375
aF0.23952522422852618
aF0.9669970443742493
aF0.6339615234401424
aF0.7565321266326525
aF0.91107688178239
aF0.5498625752509245
aF0.14354639054881957
aF0.5619141254344711
aF0.265342164550751
aF0.8388175118700822
aF0.9833903769482164
aF0.6738865808786272
aF0.6512650328409254
aF0.48294223798710256
aF0.1387200612693189
aF0.835554709948788
aF0.7616316635809282
aF0.8761737970962242
aF0.8073516959290817
aF0.6500170828702859
aF0.545937736597017
aF0.0903070476678971
aF0.8384340490931849
aF0.4027936354380143
aF0.9040846305130404
aF0.6706760952081714
aF0.10916150320625617
aF0.44045909514999704
aF0.8820290337054798
aI1
aF0.5144085699395398
aF0.3623494602223487
aF0.943016125320638
aF0.49577216384219935
aF0.9805736093380334
aF0.07995228377027219
aF0.6416106711725467
aF0.5839094314738595
atp340
Rp341
(dp342
g35
I35
sg20
S'000-035'
p343
sg21
g0
(g28
g5
Ntp344
Rp345
(dp346
g40
(F-4.691964626312256
tp347
sbsbsI36
g0
(g30
g18
(lp348
F0.9779824383164536
aF0.7515375788719578
aF0.7561781958356316
aF0.09229008083174195
aF0.33995830970210594
aF0.5721906500722429
aF0.3511067493228047
aF0.6509239885960971
aF0.544991678514162
aF0.42817688033689727
aF0.003311608895722906
aF0.0013731729877423104
aF0.04617021374280783
aF0.3344004211359771
aF0.2853867415188168
aF0.7073611029498671
aF0.0038817007837623763
aI1
aF0.7730933885192107
aF0.4440699130585216
aF0.6592597182584303
aF0.23361498731402375
aF0.23952522422852618
aF0.9669970443742493
aF0.6339615234401424
aF0.7565321266326525
aF0.91107688178239
aF0.5498625752509245
aF0.14354639054881957
aF0.5619141254344711
aF0.265342164550751
aF0.8388175118700822
aF0.9833903769482164
aF0.6738865808786272
aF0.6512650328409254
aF0.48294223798710256
aF0.1387200612693189
aF0.835554709948788
aF0.7616316635809282
aF0.8761737970962242
aF0.8073516959290817
aF0.6500170828702859
aF0.545937736597017
aF0.0903070476678971
aF0.8384340490931849
aF0.4027936354380143
aF0.9040846305130404
aF0.6706760952081714
aF0.10916150320625617
aF0.44045909514999704
aF0.8820290337054798
aI1
aF0.5144085699395398
aF0.3623494602223487
aF0.943016125320638
aF0.49577216384219935
aF0.9805736093380334
aF0.07995228377027219
aF0.6416106711725467
aF0.5839094314738595
atp349
Rp350
(dp351
g35
I36
sg20
S'000-036'
p352
sg21
g0
(g28
g5
Ntp353
Rp354
(dp355
g40
(F-4.691964626312256
tp356
sbsbsI37
g0
(g30
g18
(lp357
F0.9779824383164536
aF0.7515375788719578
aF0.7561781958356316
aF0.09229008083174195
aF0.33995830970210594
aF0.5721906500722429
aF0.3511067493228047
aF0.6509239885960971
aF0.544991678514162
aF0.42817688033689727
aF0.003311608895722906
aF0.0013731729877423104
aF0.04617021374280783
aF0.3344004211359771
aF0.2853867415188168
aF0.7073611029498671
aF0.0038817007837623763
aI1
aF0.7730933885192107
aF0.4440699130585216
aF0.6592597182584303
aF0.23361498731402375
aF0.23952522422852618
aF0.9669970443742493
aF0.6339615234401424
aF0.7565321266326525
aF0.91107688178239
aF0.5498625752509245
aF0.14354639054881957
aF0.5619141254344711
aF0.265342164550751
aF0.8388175118700822
aF0.9833903769482164
aF0.6738865808786272
aF0.6512650328409254
aF0.48294223798710256
aF0.1387200612693189
aF0.835554709948788
aF0.7616316635809282
aF0.8761737970962242
aF0.8073516959290817
aF0.6500170828702859
aF0.545937736597017
aF0.0903070476678971
aF0.8384340490931849
aF0.4027936354380143
aF0.9040846305130404
aF0.6706760952081714
aF0.10916150320625617
aF0.44045909514999704
aF0.8820290337054798
aI1
aF0.5144085699395398
aF0.3623494602223487
aF0.943016125320638
aF0.49577216384219935
aF0.9805736093380334
aF0.07995228377027219
aF0.6416106711725467
aF0.5839094314738595
atp358
Rp359
(dp360
g35
I37
sg20
S'000-037'
p361
sg21
g0
(g28
g5
Ntp362
Rp363
(dp364
g40
(F-4.691964626312256
tp365
sbsbsI38
g0
(g30
g18
(lp366
F0.9779824383164536
aF0.7515375788719578
aF0.7561781958356316
aF0.09229008083174195
aF0.33995830970210594
aF0.5721906500722429
aF0.3511067493228047
aF0.6509239885960971
aF0.544991678514162
aF0.42817688033689727
aF0.003311608895722906
aF0.0013731729877423104
aF0.04617021374280783
aF0.3344004211359771
aF0.2853867415188168
aF0.7073611029498671
aF0.0038817007837623763
aI1
aF0.7730933885192107
aF0.4440699130585216
aF0.6592597182584303
aF0.23361498731402375
aF0.23952522422852618
aF0.9669970443742493
aF0.6339615234401424
aF0.7565321266326525
aF0.91107688178239
aF0.5498625752509245
aF0.14354639054881957
aF0.5619141254344711
aF0.265342164550751
aF0.8388175118700822
aF0.9833903769482164
aF0.6738865808786272
aF0.6512650328409254
aF0.48294223798710256
aF0.1387200612693189
aF0.835554709948788
aF0.7616316635809282
aF0.8761737970962242
aF0.8073516959290817
aF0.6500170828702859
aF0.545937736597017
aF0.0903070476678971
aF0.8384340490931849
aF0.4027936354380143
aF0.9040846305130404
aF0.6706760952081714
aF0.10916150320625617
aF0.44045909514999704
aF0.8820290337054798
aI1
aF0.5144085699395398
aF0.3623494602223487
aF0.943016125320638
aF0.49577216384219935
aF0.9805736093380334
aF0.07995228377027219
aF0.6416106711725467
aF0.5839094314738595
atp367
Rp368
(dp369
g35
I38
sg20
S'000-038'
p370
sg21
g0
(g28
g5
Ntp371
Rp372
(dp373
g40
(F-4.691964626312256
tp374
sbsbsI39
g0
(g30
g18
(lp375
F0.9779824383164536
aF0.7515375788719578
aF0.7561781958356316
aF0.09229008083174195
aF0.33995830970210594
aF0.5721906500722429
aF0.3511067493228047
aF0.6509239885960971
aF0.544991678514162
aF0.42817688033689727
aF0.003311608895722906
aF0.0013731729877423104
aF0.04617021374280783
aF0.3344004211359771
aF0.2853867415188168
aF0.7073611029498671
aF0.0038817007837623763
aI1
aF0.7730933885192107
aF0.4440699130585216
aF0.6592597182584303
aF0.23361498731402375
aF0.23952522422852618
aF0.9669970443742493
aF0.6339615234401424
aF0.7565321266326525
aF0.91107688178239
aF0.5498625752509245
aF0.14354639054881957
aF0.5619141254344711
aF0.265342164550751
aF0.8388175118700822
aF0.9833903769482164
aF0.6738865808786272
aF0.6512650328409254
aF0.48294223798710256
aF0.1387200612693189
aF0.835554709948788
aF0.7616316635809282
aF0.8761737970962242
aF0.8073516959290817
aF0.6500170828702859
aF0.545937736597017
aF0.0903070476678971
aF0.8384340490931849
aF0.4027936354380143
aF0.9040846305130404
aF0.6706760952081714
aF0.10916150320625617
aF0.44045909514999704
aF0.8820290337054798
aI1
aF0.5144085699395398
aF0.3623494602223487
aF0.943016125320638
aF0.49577216384219935
aF0.9805736093380334
aF0.07995228377027219
aF0.6416106711725467
aF0.5839094314738595
atp376
Rp377
(dp378
g35
I39
sg20
S'000-039'
p379
sg21
g0
(g28
g5
Ntp380
Rp381
(dp382
g40
(F-4.691964626312256
tp383
sbsbsI40
g0
(g30
g18
(lp384
F0.9779824383164536
aF0.7515375788719578
aF0.7561781958356316
aF0.09229008083174195
aF0.33995830970210594
aF0.5721906500722429
aF0.3511067493228047
aF0.6509239885960971
aF0.544991678514162
aF0.42817688033689727
aF0.003311608895722906
aF0.0013731729877423104
aF0.04617021374280783
aF0.3344004211359771
aF0.2853867415188168
aF0.7073611029498671
aF0.0038817007837623763
aI1
aF0.7730933885192107
aF0.4440699130585216
aF0.6592597182584303
aF0.23361498731402375
aF0.23952522422852618
aF0.9669970443742493
aF0.6339615234401424
aF0.7565321266326525
aF0.91107688178239
aF0.5498625752509245
aF0.14354639054881957
aF0.5619141254344711
aF0.265342164550751
aF0.8388175118700822
aF0.9833903769482164
aF0.6738865808786272
aF0.6512650328409254
aF0.48294223798710256
aF0.1387200612693189
aF0.835554709948788
aF0.7616316635809282
aF0.8761737970962242
aF0.8073516959290817
aF0.6500170828702859
aF0.545937736597017
aF0.0903070476678971
aF0.8384340490931849
aF0.4027936354380143
aF0.9040846305130404
aF0.6706760952081714
aF0.10916150320625617
aF0.44045909514999704
aF0.8820290337054798
aI1
aF0.5144085699395398
aF0.3623494602223487
aF0.943016125320638
aF0.49577216384219935
aF0.9805736093380334
aF0.07995228377027219
aF0.6416106711725467
aF0.5839094314738595
atp385
Rp386
(dp387
g35
I40
sg20
S'000-040'
p388
sg21
g0
(g28
g5
Ntp389
Rp390
(dp391
g40
(F-4.691964626312256
tp392
sbsbsI41
g0
(g30
g18
(lp393
F0.9779824383164536
aF0.7515375788719578
aF0.7561781958356316
aF0.09229008083174195
aF0.33995830970210594
aF0.5721906500722429
aF0.3511067493228047
aF0.6509239885960971
aF0.544991678514162
aF0.42817688033689727
aF0.003311608895722906
aF0.0013731729877423104
aF0.04617021374280783
aF0.3344004211359771
aF0.2853867415188168
aF0.7073611029498671
aF0.0038817007837623763
aI1
aF0.7730933885192107
aF0.4440699130585216
aF0.6592597182584303
aF0.23361498731402375
aF0.23952522422852618
aF0.9669970443742493
aF0.6339615234401424
aF0.7565321266326525
aF0.91107688178239
aF0.5498625752509245
aF0.14354639054881957
aF0.5619141254344711
aF0.265342164550751
aF0.8388175118700822
aF0.9833903769482164
aF0.6738865808786272
aF0.6512650328409254
aF0.48294223798710256
aF0.1387200612693189
aF0.835554709948788
aF0.7616316635809282
aF0.8761737970962242
aF0.8073516959290817
aF0.6500170828702859
aF0.545937736597017
aF0.0903070476678971
aF0.8384340490931849
aF0.4027936354380143
aF0.9040846305130404
aF0.6706760952081714
aF0.10916150320625617
aF0.44045909514999704
aF0.8820290337054798
aI1
aF0.5144085699395398
aF0.3623494602223487
aF0.943016125320638
aF0.49577216384219935
aF0.9805736093380334
aF0.07995228377027219
aF0.6416106711725467
aF0.5839094314738595
atp394
Rp395
(dp396
g35
I41
sg20
S'000-041'
p397
sg21
g0
(g28
g5
Ntp398
Rp399
(dp400
g40
(F-4.691964626312256
tp401
sbsbsI42
g0
(g30
g18
(lp402
F0.9779824383164536
aF0.7515375788719578
aF0.7561781958356316
aF0.09229008083174195
aF0.33995830970210594
aF0.5721906500722429
aF0.3511067493228047
aF0.6509239885960971
aF0.544991678514162
aF0.42817688033689727
aF0.003311608895722906
aF0.0013731729877423104
aF0.04617021374280783
aF0.3344004211359771
aF0.2853867415188168
aF0.7073611029498671
aF0.0038817007837623763
aI1
aF0.7730933885192107
aF0.4440699130585216
aF0.6592597182584303
aF0.23361498731402375
aF0.23952522422852618
aF0.9669970443742493
aF0.6339615234401424
aF0.7565321266326525
aF0.91107688178239
aF0.5498625752509245
aF0.14354639054881957
aF0.5619141254344711
aF0.265342164550751
aF0.8388175118700822
aF0.9833903769482164
aF0.6738865808786272
aF0.6512650328409254
aF0.48294223798710256
aF0.1387200612693189
aF0.835554709948788
aF0.7616316635809282
aF0.8761737970962242
aF0.8073516959290817
aF0.6500170828702859
aF0.545937736597017
aF0.0903070476678971
aF0.8384340490931849
aF0.4027936354380143
aF0.9040846305130404
aF0.6706760952081714
aF0.10916150320625617
aF0.44045909514999704
aF0.8820290337054798
aI1
aF0.5144085699395398
aF0.3623494602223487
aF0.943016125320638
aF0.49577216384219935
aF0.9805736093380334
aF0.07995228377027219
aF0.6416106711725467
aF0.5839094314738595
atp403
Rp404
(dp405
g35
I42
sg20
S'000-042'
p406
sg21
g0
(g28
g5
Ntp407
Rp408
(dp409
g40
(F-4.691964626312256
tp410
sbsbsI43
g0
(g30
g18
(lp411
F0.9779824383164536
aF0.7515375788719578
aF0.7561781958356316
aF0.09229008083174195
aF0.33995830970210594
aF0.5721906500722429
aF0.3511067493228047
aF0.6509239885960971
aF0.544991678514162
aF0.42817688033689727
aF0.003311608895722906
aF0.0013731729877423104
aF0.04617021374280783
aF0.3344004211359771
aF0.2853867415188168
aF0.7073611029498671
aF0.0038817007837623763
aI1
aF0.7730933885192107
aF0.4440699130585216
aF0.6592597182584303
aF0.23361498731402375
aF0.23952522422852618
aF0.9669970443742493
aF0.6339615234401424
aF0.7565321266326525
aF0.91107688178239
aF0.5498625752509245
aF0.14354639054881957
aF0.5619141254344711
aF0.265342164550751
aF0.8388175118700822
aF0.9833903769482164
aF0.6738865808786272
aF0.6512650328409254
aF0.48294223798710256
aF0.1387200612693189
aF0.835554709948788
aF0.7616316635809282
aF0.8761737970962242
aF0.8073516959290817
aF0.6500170828702859
aF0.545937736597017
aF0.0903070476678971
aF0.8384340490931849
aF0.4027936354380143
aF0.9040846305130404
aF0.6706760952081714
aF0.10916150320625617
aF0.44045909514999704
aF0.8820290337054798
aI1
aF0.5144085699395398
aF0.3623494602223487
aF0.943016125320638
aF0.49577216384219935
aF0.9805736093380334
aF0.07995228377027219
aF0.6416106711725467
aF0.5839094314738595
atp412
Rp413
(dp414
g35
I43
sg20
S'000-043'
p415
sg21
g0
(g28
g5
Ntp416
Rp417
(dp418
g40
(F-4.691964626312256
tp419
sbsbsI44
g0
(g30
g18
(lp420
F0.9779824383164536
aF0.7515375788719578
aF0.7561781958356316
aF0.09229008083174195
aF0.33995830970210594
aF0.5721906500722429
aF0.3511067493228047
aF0.6509239885960971
aF0.544991678514162
aF0.42817688033689727
aF0.003311608895722906
aF0.0013731729877423104
aF0.04617021374280783
aF0.3344004211359771
aF0.2853867415188168
aF0.7073611029498671
aF0.0038817007837623763
aI1
aF0.7730933885192107
aF0.4440699130585216
aF0.6592597182584303
aF0.23361498731402375
aF0.23952522422852618
aF0.9669970443742493
aF0.6339615234401424
aF0.7565321266326525
aF0.91107688178239
aF0.5498625752509245
aF0.14354639054881957
aF0.5619141254344711
aF0.265342164550751
aF0.8388175118700822
aF0.9833903769482164
aF0.6738865808786272
aF0.6512650328409254
aF0.48294223798710256
aF0.1387200612693189
aF0.835554709948788
aF0.7616316635809282
aF0.8761737970962242
aF0.8073516959290817
aF0.6500170828702859
aF0.545937736597017
aF0.0903070476678971
aF0.8384340490931849
aF0.4027936354380143
aF0.9040846305130404
aF0.6706760952081714
aF0.10916150320625617
aF0.44045909514999704
aF0.8820290337054798
aI1
aF0.5144085699395398
aF0.3623494602223487
aF0.943016125320638
aF0.49577216384219935
aF0.9805736093380334
aF0.07995228377027219
aF0.6416106711725467
aF0.5839094314738595
atp421
Rp422
(dp423
g35
I44
sg20
S'000-044'
p424
sg21
g0
(g28
g5
Ntp425
Rp426
(dp427
g40
(F-4.691964626312256
tp428
sbsbsI45
g0
(g30
g18
(lp429
F0.9779824383164536
aF0.7515375788719578
aF0.7561781958356316
aF0.09229008083174195
aF0.33995830970210594
aF0.5721906500722429
aF0.3511067493228047
aF0.6509239885960971
aF0.544991678514162
aF0.42817688033689727
aF0.003311608895722906
aF0.0013731729877423104
aF0.04617021374280783
aF0.3344004211359771
aF0.2853867415188168
aF0.7073611029498671
aF0.0038817007837623763
aI1
aF0.7730933885192107
aF0.4440699130585216
aF0.6592597182584303
aF0.23361498731402375
aF0.23952522422852618
aF0.9669970443742493
aF0.6339615234401424
aF0.7565321266326525
aF0.91107688178239
aF0.5498625752509245
aF0.14354639054881957
aF0.5619141254344711
aF0.265342164550751
aF0.8388175118700822
aF0.9833903769482164
aF0.6738865808786272
aF0.6512650328409254
aF0.48294223798710256
aF0.1387200612693189
aF0.835554709948788
aF0.7616316635809282
aF0.8761737970962242
aF0.8073516959290817
aF0.6500170828702859
aF0.545937736597017
aF0.0903070476678971
aF0.8384340490931849
aF0.4027936354380143
aF0.9040846305130404
aF0.6706760952081714
aF0.10916150320625617
aF0.44045909514999704
aF0.8820290337054798
aI1
aF0.5144085699395398
aF0.3623494602223487
aF0.943016125320638
aF0.49577216384219935
aF0.9805736093380334
aF0.07995228377027219
aF0.6416106711725467
aF0.5839094314738595
atp430
Rp431
(dp432
g35
I45
sg20
S'000-045'
p433
sg21
g0
(g28
g5
Ntp434
Rp435
(dp436
g40
(F-4.691964626312256
tp437
sbsbsI46
g0
(g30
g18
(lp438
F0.9779824383164536
aF0.7515375788719578
aF0.7561781958356316
aF0.09229008083174195
aF0.33995830970210594
aF0.5721906500722429
aF0.3511067493228047
aF0.6509239885960971
aF0.544991678514162
aF0.42817688033689727
aF0.003311608895722906
aF0.0013731729877423104
aF0.04617021374280783
aF0.3344004211359771
aF0.2853867415188168
aF0.7073611029498671
aF0.0038817007837623763
aI1
aF0.7730933885192107
aF0.4440699130585216
aF0.6592597182584303
aF0.23361498731402375
aF0.23952522422852618
aF0.9669970443742493
aF0.6339615234401424
aF0.7565321266326525
aF0.91107688178239
aF0.5498625752509245
aF0.14354639054881957
aF0.5619141254344711
aF0.265342164550751
aF0.8388175118700822
aF0.9833903769482164
aF0.6738865808786272
aF0.6512650328409254
aF0.48294223798710256
aF0.1387200612693189
aF0.835554709948788
aF0.7616316635809282
aF0.8761737970962242
aF0.8073516959290817
aF0.6500170828702859
aF0.545937736597017
aF0.0903070476678971
aF0.8384340490931849
aF0.4027936354380143
aF0.9040846305130404
aF0.6706760952081714
aF0.10916150320625617
aF0.44045909514999704
aF0.8820290337054798
aI1
aF0.5144085699395398
aF0.3623494602223487
aF0.943016125320638
aF0.49577216384219935
aF0.9805736093380334
aF0.07995228377027219
aF0.6416106711725467
aF0.5839094314738595
atp439
Rp440
(dp441
g35
I46
sg20
S'000-046'
p442
sg21
g0
(g28
g5
Ntp443
Rp444
(dp445
g40
(F-4.691964626312256
tp446
sbsbsI47
g0
(g30
g18
(lp447
F0.9779824383164536
aF0.7515375788719578
aF0.7561781958356316
aF0.09229008083174195
aF0.33995830970210594
aF0.5721906500722429
aF0.3511067493228047
aF0.6509239885960971
aF0.544991678514162
aF0.42817688033689727
aF0.003311608895722906
aF0.0013731729877423104
aF0.04617021374280783
aF0.3344004211359771
aF0.2853867415188168
aF0.7073611029498671
aF0.0038817007837623763
aI1
aF0.7730933885192107
aF0.4440699130585216
aF0.6592597182584303
aF0.23361498731402375
aF0.23952522422852618
aF0.9669970443742493
aF0.6339615234401424
aF0.7565321266326525
aF0.91107688178239
aF0.5498625752509245
aF0.14354639054881957
aF0.5619141254344711
aF0.265342164550751
aF0.8388175118700822
aF0.9833903769482164
aF0.6738865808786272
aF0.6512650328409254
aF0.48294223798710256
aF0.1387200612693189
aF0.835554709948788
aF0.7616316635809282
aF0.8761737970962242
aF0.8073516959290817
aF0.6500170828702859
aF0.545937736597017
aF0.0903070476678971
aF0.8384340490931849
aF0.4027936354380143
aF0.9040846305130404
aF0.6706760952081714
aF0.10916150320625617
aF0.44045909514999704
aF0.8820290337054798
aI1
aF0.5144085699395398
aF0.3623494602223487
aF0.943016125320638
aF0.49577216384219935
aF0.9805736093380334
aF0.07995228377027219
aF0.6416106711725467
aF0.5839094314738595
atp448
Rp449
(dp450
g35
I47
sg20
S'000-047'
p451
sg21
g0
(g28
g5
Ntp452
Rp453
(dp454
g40
(F-4.691964626312256
tp455
sbsbsI48
g0
(g30
g18
(lp456
F0.9779824383164536
aF0.7515375788719578
aF0.7561781958356316
aF0.09229008083174195
aF0.33995830970210594
aF0.5721906500722429
aF0.3511067493228047
aF0.6509239885960971
aF0.544991678514162
aF0.42817688033689727
aF0.003311608895722906
aF0.0013731729877423104
aF0.04617021374280783
aF0.3344004211359771
aF0.2853867415188168
aF0.7073611029498671
aF0.0038817007837623763
aI1
aF0.7730933885192107
aF0.4440699130585216
aF0.6592597182584303
aF0.23361498731402375
aF0.23952522422852618
aF0.9669970443742493
aF0.6339615234401424
aF0.7565321266326525
aF0.91107688178239
aF0.5498625752509245
aF0.14354639054881957
aF0.5619141254344711
aF0.265342164550751
aF0.8388175118700822
aF0.9833903769482164
aF0.6738865808786272
aF0.6512650328409254
aF0.48294223798710256
aF0.1387200612693189
aF0.835554709948788
aF0.7616316635809282
aF0.8761737970962242
aF0.8073516959290817
aF0.6500170828702859
aF0.545937736597017
aF0.0903070476678971
aF0.8384340490931849
aF0.4027936354380143
aF0.9040846305130404
aF0.6706760952081714
aF0.10916150320625617
aF0.44045909514999704
aF0.8820290337054798
aI1
aF0.5144085699395398
aF0.3623494602223487
aF0.943016125320638
aF0.49577216384219935
aF0.9805736093380334
aF0.07995228377027219
aF0.6416106711725467
aF0.5839094314738595
atp457
Rp458
(dp459
g35
I48
sg20
S'000-048'
p460
sg21
g0
(g28
g5
Ntp461
Rp462
(dp463
g40
(F-4.691964626312256
tp464
sbsbsI49
g0
(g30
g18
(lp465
F0.9779824383164536
aF0.7515375788719578
aF0.7561781958356316
aF0.09229008083174195
aF0.33995830970210594
aF0.5721906500722429
aF0.3511067493228047
aF0.6509239885960971
aF0.544991678514162
aF0.42817688033689727
aF0.003311608895722906
aF0.0013731729877423104
aF0.04617021374280783
aF0.3344004211359771
aF0.2853867415188168
aF0.7073611029498671
aF0.0038817007837623763
aI1
aF0.7730933885192107
aF0.4440699130585216
aF0.6592597182584303
aF0.23361498731402375
aF0.23952522422852618
aF0.9669970443742493
aF0.6339615234401424
aF0.7565321266326525
aF0.91107688178239
aF0.5498625752509245
aF0.14354639054881957
aF0.5619141254344711
aF0.265342164550751
aF0.8388175118700822
aF0.9833903769482164
aF0.6738865808786272
aF0.6512650328409254
aF0.48294223798710256
aF0.1387200612693189
aF0.835554709948788
aF0.7616316635809282
aF0.8761737970962242
aF0.8073516959290817
aF0.6500170828702859
aF0.545937736597017
aF0.0903070476678971
aF0.8384340490931849
aF0.4027936354380143
aF0.9040846305130404
aF0.6706760952081714
aF0.10916150320625617
aF0.44045909514999704
aF0.8820290337054798
aI1
aF0.5144085699395398
aF0.3623494602223487
aF0.943016125320638
aF0.49577216384219935
aF0.9805736093380334
aF0.07995228377027219
aF0.6416106711725467
aF0.5839094314738595
atp466
Rp467
(dp468
g35
I49
sg20
S'000-049'
p469
sg21
g0
(g28
g5
Ntp470
Rp471
(dp472
g40
(F-4.691964626312256
tp473
sbsbsI50
g0
(g30
g18
(lp474
F0.9779824383164536
aF0.7515375788719578
aF0.7561781958356316
aF0.09229008083174195
aF0.33995830970210594
aF0.5721906500722429
aF0.3511067493228047
aF0.6509239885960971
aF0.544991678514162
aF0.42817688033689727
aF0.003311608895722906
aF0.0013731729877423104
aF0.04617021374280783
aF0.3344004211359771
aF0.2853867415188168
aF0.7073611029498671
aF0.0038817007837623763
aI1
aF0.7730933885192107
aF0.4440699130585216
aF0.6592597182584303
aF0.23361498731402375
aF0.23952522422852618
aF0.9669970443742493
aF0.6339615234401424
aF0.7565321266326525
aF0.91107688178239
aF0.5498625752509245
aF0.14354639054881957
aF0.5619141254344711
aF0.265342164550751
aF0.8388175118700822
aF0.9833903769482164
aF0.6738865808786272
aF0.6512650328409254
aF0.48294223798710256
aF0.1387200612693189
aF0.835554709948788
aF0.7616316635809282
aF0.8761737970962242
aF0.8073516959290817
aF0.6500170828702859
aF0.545937736597017
aF0.0903070476678971
aF0.8384340490931849
aF0.4027936354380143
aF0.9040846305130404
aF0.6706760952081714
aF0.10916150320625617
aF0.44045909514999704
aF0.8820290337054798
aI1
aF0.5144085699395398
aF0.3623494602223487
aF0.943016125320638
aF0.49577216384219935
aF0.9805736093380334
aF0.07995228377027219
aF0.6416106711725467
aF0.5839094314738595
atp475
Rp476
(dp477
g35
I50
sg20
S'000-050'
p478
sg21
g0
(g28
g5
Ntp479
Rp480
(dp481
g40
(F-4.691964626312256
tp482
sbsbssb.